Archive member included because of file (symbol)

/opt/fsl/1.2/sysroots/ppce500mc-fsl-linux/usr/lib/powerpc-fsl-linux/4.6.2/libgcc.a(_lshrdi3.o)
                              arch/powerpc/cpu/mpc8xxx/ddr/libddr.o (__lshrdi3)
/opt/fsl/1.2/sysroots/ppce500mc-fsl-linux/usr/lib/powerpc-fsl-linux/4.6.2/libgcc.a(_ashldi3.o)
                              arch/powerpc/cpu/mpc85xx/libmpc85xx.o (__ashldi3)
/opt/fsl/1.2/sysroots/ppce500mc-fsl-linux/usr/lib/powerpc-fsl-linux/4.6.2/libgcc.a(_udivdi3.o)
                              arch/powerpc/cpu/mpc8xxx/lib8xxx.o (__udivdi3)
/opt/fsl/1.2/sysroots/ppce500mc-fsl-linux/usr/lib/powerpc-fsl-linux/4.6.2/libgcc.a(crtsavgpr.o)
                              arch/powerpc/cpu/mpc85xx/libmpc85xx.o (_savegpr_31)
/opt/fsl/1.2/sysroots/ppce500mc-fsl-linux/usr/lib/powerpc-fsl-linux/4.6.2/libgcc.a(crtresxgpr.o)
                              arch/powerpc/cpu/mpc85xx/libmpc85xx.o (_restgpr_14_x)

Allocating common symbols
Common symbol       size              file

ext_fs              0x48              fs/ext4/libext4fs.o
console_buffer      0x101             common/libcommon.o
NetArpWaitTry       0x4               net/libnet.o
NetArpWaitPacketMAC
                    0x4               net/libnet.o
flash_info          0x540             drivers/mtd/libmtd.o
NetOurEther         0x6               net/libnet.o
NetOurIP            0x4               net/libnet.o
NetPingIP           0x4               net/libnet.o
part_offset         0x4               fs/ext4/libext4fs.o
NetServerIP         0x4               net/libnet.o
monitor_flash_len   0x4               arch/powerpc/lib/libpowerpc.o
save_addr           0x4               common/libcommon.o
___strtok           0x4               lib/libgeneric.o
NetArpWaitTxPacketSize
                    0x4               net/libnet.o
NetRxPackets        0x10              net/libnet.o
ext4fs_indir1_size  0x4               fs/ext4/libext4fs.o
NetArpWaitPacketIP  0x4               net/libnet.o
BootpTry            0x4               net/libnet.o
ext4fs_indir2_block
                    0x4               fs/ext4/libext4fs.o
BootFile            0x80              net/libnet.o
eth_current         0x4               net/libnet.o
ext4fs_indir3_block
                    0x4               fs/ext4/libext4fs.o
NetServerEther      0x6               net/libnet.o
ext4fs_symlinknest  0x4               fs/ext4/libext4fs.o
NetOurSubnetMask    0x4               net/libnet.o
NetBootFileSize     0x2               net/libnet.o
NetIPID             0x4               net/libnet.o
NetRxPacket         0x4               net/libnet.o
net_state           0x4               net/libnet.o
images              0x1f8             common/libcommon.o
ppaact              0x4               arch/powerpc/cpu/mpc8xxx/lib8xxx.o
BootpID             0x4               net/libnet.o
NetOurGatewayIP     0x4               net/libnet.o
NetEtherNullAddr    0x6               net/libnet.o
working_fdt         0x4               common/libcommon.o
do_fat_read_at_block
                    0x10000           fs/fat/libfat.o
ext4fs_indir3_size  0x4               fs/ext4/libext4fs.o
g_parent_inode      0x4               fs/ext4/libext4fs.o
NetRestartWrap      0x4               net/libnet.o
ext4fs_indir2_size  0x4               fs/ext4/libext4fs.o
ext4fs_indir1_block
                    0x4               fs/ext4/libext4fs.o
save_size           0x4               common/libcommon.o
sec                 0x4               arch/powerpc/cpu/mpc8xxx/lib8xxx.o
ext4fs_file         0x4               fs/ext4/libext4fs.o
NetTxPacket         0x4               net/libnet.o
get_dentfromdir_block
                    0x10000           fs/fat/libfat.o
NetBootFileXferSize
                    0x4               net/libnet.o
ext4fs_root         0x4               fs/ext4/libext4fs.o
muram               0x10              drivers/net/fm/libfm.o
NetOurDNSIP         0x4               net/libnet.o
NetRxPacketLen      0x4               net/libnet.o
get_contents_vfatname_block
                    0x10000           fs/fat/libfat.o
NetArpWaitTimerStart
                    0x4               net/libnet.o

Discarded input sections

 .data          0x00000000        0x0 arch/powerpc/cpu/mpc85xx/start.o
 .bss           0x00000000        0x0 arch/powerpc/cpu/mpc85xx/start.o
 .text          0x00000000        0x0 arch/powerpc/cpu/mpc85xx/resetvec.o
 .data          0x00000000        0x0 arch/powerpc/cpu/mpc85xx/resetvec.o
 .bss           0x00000000        0x0 arch/powerpc/cpu/mpc85xx/resetvec.o
 .text.serdes_get_lane_idx
                0x00000000       0x30 arch/powerpc/cpu/mpc85xx/libmpc85xx.o
 .text.__fsl_serdes__init
                0x00000000        0x4 arch/powerpc/cpu/mpc85xx/libmpc85xx.o
 .text.clear_ddr_tlbs
                0x00000000       0x2c arch/powerpc/cpu/mpc85xx/libmpc85xx.o
 .text.PITException
                0x00000000       0x2c arch/powerpc/cpu/mpc85xx/libmpc85xx.o
 .text.addr_probe
                0x00000000        0x8 arch/powerpc/cpu/mpc85xx/libmpc85xx.o
 .data          0x00000000        0x0 arch/powerpc/cpu/mpc85xx/libmpc85xx.o
 .sdata.srio_liodn_tbl_sz
                0x00000000        0x4 arch/powerpc/cpu/mpc85xx/libmpc85xx.o
 .data.srio_liodn_tbl
                0x00000000       0x28 arch/powerpc/cpu/mpc85xx/libmpc85xx.o
 .bss           0x00000000        0x0 arch/powerpc/cpu/mpc85xx/libmpc85xx.o
 .text          0x00000000        0x0 arch/powerpc/cpu/mpc8xxx/ddr/libddr.o
 .text.step_to_string
                0x00000000       0x50 arch/powerpc/cpu/mpc8xxx/ddr/libddr.o
 .text.__step_assign_addresses
                0x00000000      0x204 arch/powerpc/cpu/mpc8xxx/ddr/libddr.o
 .text.fsl_ddr_compute
                0x00000000      0x134 arch/powerpc/cpu/mpc8xxx/ddr/libddr.o
 .text.fsl_ddr_sdram
                0x00000000       0xec arch/powerpc/cpu/mpc8xxx/ddr/libddr.o
 .text.fsl_ddr_sdram_size
                0x00000000       0x3c arch/powerpc/cpu/mpc8xxx/ddr/libddr.o
 .text.get_memory_clk_period_ps
                0x00000000       0x5c arch/powerpc/cpu/mpc8xxx/ddr/libddr.o
 .text.picos_to_mclk
                0x00000000      0x108 arch/powerpc/cpu/mpc8xxx/ddr/libddr.o
 .text.mclk_to_picos
                0x00000000       0x28 arch/powerpc/cpu/mpc8xxx/ddr/libddr.o
 .text.__fsl_ddr_set_lawbar
                0x00000000       0x6c arch/powerpc/cpu/mpc8xxx/ddr/libddr.o
 .text.fsl_ddr_set_intl3r
                0x00000000        0x4 arch/powerpc/cpu/mpc8xxx/ddr/libddr.o
 .text.check_fsl_memctl_config_regs
                0x00000000       0x48 arch/powerpc/cpu/mpc8xxx/ddr/libddr.o
 .text.compute_fsl_memctl_config_regs
                0x00000000      0xf34 arch/powerpc/cpu/mpc8xxx/ddr/libddr.o
 .text.populate_memctl_options
                0x00000000      0x444 arch/powerpc/cpu/mpc8xxx/ddr/libddr.o
 .text.check_interleaving_options
                0x00000000        0x4 arch/powerpc/cpu/mpc8xxx/ddr/libddr.o
 .text.fsl_use_spd
                0x00000000        0x8 arch/powerpc/cpu/mpc8xxx/ddr/libddr.o
 .text.compute_lowest_common_dimm_parameters
                0x00000000      0x560 arch/powerpc/cpu/mpc8xxx/ddr/libddr.o
 .rodata        0x00000000        0xc arch/powerpc/cpu/mpc8xxx/ddr/libddr.o
 .rodata.__func__.6492
                0x00000000       0x15 arch/powerpc/cpu/mpc8xxx/ddr/libddr.o
 .rodata.wrrec_table.6474
                0x00000000       0x10 arch/powerpc/cpu/mpc8xxx/ddr/libddr.o
 .rodata.wr_table.6590
                0x00000000        0xc arch/powerpc/cpu/mpc8xxx/ddr/libddr.o
 .rodata.single_Q
                0x00000000       0x40 arch/powerpc/cpu/mpc8xxx/ddr/libddr.o
 .rodata.single_S
                0x00000000       0x40 arch/powerpc/cpu/mpc8xxx/ddr/libddr.o
 .rodata.single_D
                0x00000000       0x40 arch/powerpc/cpu/mpc8xxx/ddr/libddr.o
 .rodata.odt_unknown
                0x00000000       0x40 arch/powerpc/cpu/mpc8xxx/ddr/libddr.o
 .data          0x00000000        0x0 arch/powerpc/cpu/mpc8xxx/ddr/libddr.o
 .bss           0x00000000        0x0 arch/powerpc/cpu/mpc8xxx/ddr/libddr.o
 .text          0x00000000        0x0 arch/powerpc/cpu/mpc8xxx/lib8xxx.o
 .text.__lbc_sdram_init
                0x00000000        0x4 arch/powerpc/cpu/mpc8xxx/lib8xxx.o
 .text.upmconfig
                0x00000000      0x180 arch/powerpc/cpu/mpc8xxx/lib8xxx.o
 .text.disable_law
                0x00000000       0x60 arch/powerpc/cpu/mpc8xxx/lib8xxx.o
 .text.pamu_init
                0x00000000      0x130 arch/powerpc/cpu/mpc8xxx/lib8xxx.o
 .text.pamu_enable
                0x00000000       0x3c arch/powerpc/cpu/mpc8xxx/lib8xxx.o
 .text.pamu_reset
                0x00000000       0x7c arch/powerpc/cpu/mpc8xxx/lib8xxx.o
 .text.pamu_disable
                0x00000000       0x3c arch/powerpc/cpu/mpc8xxx/lib8xxx.o
 .text.config_pamu
                0x00000000      0x5e0 arch/powerpc/cpu/mpc8xxx/lib8xxx.o
 .text.construct_pamu_addr_table
                0x00000000       0xd4 arch/powerpc/cpu/mpc8xxx/lib8xxx.o
 .text.sec_config_pamu_table
                0x00000000       0x44 arch/powerpc/cpu/mpc8xxx/lib8xxx.o
 .rodata.__func__.5916
                0x00000000        0xa arch/powerpc/cpu/mpc8xxx/lib8xxx.o
 .data          0x00000000        0x0 arch/powerpc/cpu/mpc8xxx/lib8xxx.o
 .bss           0x00000000        0x0 arch/powerpc/cpu/mpc8xxx/lib8xxx.o
 .sbss          0x00000000        0x8 arch/powerpc/cpu/mpc8xxx/lib8xxx.o
 .text.__board_add_ram_info
                0x00000000        0x4 arch/powerpc/lib/libpowerpc.o
 .text.__cpu_secondary_init_r
                0x00000000        0x4 arch/powerpc/lib/libpowerpc.o
 .text.__fixup_cpu
                0x00000000        0x8 arch/powerpc/lib/libpowerpc.o
 .text.__ft_verify_fdt
                0x00000000        0x8 arch/powerpc/lib/libpowerpc.o
 .text.ticks2usec
                0x00000000       0x30 arch/powerpc/lib/libpowerpc.o
 .data          0x00000000        0x0 arch/powerpc/lib/libpowerpc.o
 .bss           0x00000000        0x0 arch/powerpc/lib/libpowerpc.o
 .text          0x00000000        0x0 board/freescale/common/libfreescale.o
 .text.serdes_device_from_fm_port
                0x00000000       0x40 board/freescale/common/libfreescale.o
 .rodata.srds_table.6539
                0x00000000       0x4c board/freescale/common/libfreescale.o
 .data          0x00000000        0x0 board/freescale/common/libfreescale.o
 .bss           0x00000000        0x0 board/freescale/common/libfreescale.o
 .text          0x00000000        0x0 common/libcommon.o
 .text.__arch_preboot_os
                0x00000000        0x4 common/libcommon.o
 .text.i2c_init_board
                0x00000000        0x4 common/libcommon.o
 .text.i2c_get_bus_speed
                0x00000000        0xc common/libcommon.o
 .text.i2c_set_bus_speed
                0x00000000       0x1c common/libcommon.o
 .text.setenv_ulong
                0x00000000       0x34 common/libcommon.o
 .text.setenv_addr
                0x00000000       0x40 common/libcommon.o
 .text.serial_printf
                0x00000000       0x78 common/libcommon.o
 .text.fprintf  0x00000000       0x74 common/libcommon.o
 .text.dbg      0x00000000        0x4 common/libcommon.o
 .text.cfree    0x00000000       0x20 common/libcommon.o
 .text.pvalloc  0x00000000       0x2c common/libcommon.o
 .text.valloc   0x00000000       0x28 common/libcommon.o
 .text.malloc_usable_size
                0x00000000       0x44 common/libcommon.o
 .text.mallopt  0x00000000       0x80 common/libcommon.o
 .text.env_flags_parse_varaccess_from_binflags
                0x00000000       0x64 common/libcommon.o
 .text.do_fixup_by_path_u32
                0x00000000       0x34 common/libcommon.o
 .text.fdt_set_status_by_alias
                0x00000000       0x40 common/libcommon.o
 .text.hash_command
                0x00000000      0x194 common/libcommon.o
 .text.unset_local_var
                0x00000000       0xb0 common/libcommon.o
 .text.hwconfig_f
                0x00000000       0x34 common/libcommon.o
 .text.hwconfig_sub_f
                0x00000000       0x60 common/libcommon.o
 .text.hwconfig_subarg_f
                0x00000000       0x60 common/libcommon.o
 .text.hwconfig_subarg_cmp_f
                0x00000000       0x60 common/libcommon.o
 .text.fit_set_timestamp
                0x00000000       0x84 common/libcommon.o
 .text.fit_conf_find_compat
                0x00000000      0x1b4 common/libcommon.o
 .text.parse_line
                0x00000000       0xb0 common/libcommon.o
 .text.get_ram_size
                0x00000000      0x124 common/libcommon.o
 .text.legacy_miiphy_read
                0x00000000       0x50 common/libcommon.o
 .text.legacy_miiphy_write
                0x00000000       0x3c common/libcommon.o
 .text.miiphy_register
                0x00000000       0xfc common/libcommon.o
 .rodata.version_string
                0x00000000       0x31 common/libcommon.o
 .rodata.mallopt
                0x00000000       0x10 common/libcommon.o
 .rodata.__FUNCTION__.6544
                0x00000000       0x10 common/libcommon.o
 .data          0x00000000        0x0 common/libcommon.o
 .data.mmap_threshold
                0x00000000        0x4 common/libcommon.o
 .bss           0x00000000        0x0 common/libcommon.o
 .bss.n_mmaps_max
                0x00000000        0x4 common/libcommon.o
 .text          0x00000000        0x0 disk/libdisk.o
 .data          0x00000000        0x0 disk/libdisk.o
 .bss           0x00000000        0x0 disk/libdisk.o
 .text          0x00000000        0x0 drivers/i2c/libi2c.o
 .bss           0x00000000        0x0 drivers/i2c/libi2c.o
 .text          0x00000000        0x0 drivers/input/libinput.o
 .text.sort_array_by_ordering
                0x00000000      0x130 drivers/input/libinput.o
 .text.input_tstc
                0x00000000       0x6c drivers/input/libinput.o
 .text.input_getc
                0x00000000       0x7c drivers/input/libinput.o
 .text.input_send_keycodes
                0x00000000      0x310 drivers/input/libinput.o
 .text.input_add_table
                0x00000000       0x40 drivers/input/libinput.o
 .text.input_set_delays
                0x00000000        0xc drivers/input/libinput.o
 .text.input_init
                0x00000000       0xa4 drivers/input/libinput.o
 .text.input_stdio_register
                0x00000000       0x6c drivers/input/libinput.o
 .rodata.kbd_plain_xlate
                0x00000000       0x63 drivers/input/libinput.o
 .rodata.CSWTCH.25
                0x00000000        0xd drivers/input/libinput.o
 .data          0x00000000        0x0 drivers/input/libinput.o
 .data.kbd_ctrl_xlate
                0x00000000       0x63 drivers/input/libinput.o
 .data.kbd_shift_xlate
                0x00000000       0x63 drivers/input/libinput.o
 .bss           0x00000000        0x0 drivers/input/libinput.o
 .text          0x00000000        0x0 drivers/mmc/libmmc.o
 .data          0x00000000        0x0 drivers/mmc/libmmc.o
 .bss           0x00000000        0x0 drivers/mmc/libmmc.o
 .text          0x00000000        0x0 drivers/mtd/libmtd.o
 .data          0x00000000        0x0 drivers/mtd/libmtd.o
 .bss           0x00000000        0x0 drivers/mtd/libmtd.o
 .text          0x00000000        0x0 drivers/net/fm/libfm.o
 .text.fm_disable_port
                0x00000000       0x40 drivers/net/fm/libfm.o
 .text.fm_info_get_phy_address
                0x00000000       0x44 drivers/net/fm/libfm.o
 .text.__def_board_ft_fman_fixup_port
                0x00000000        0x4 drivers/net/fm/libfm.o
 .text.fman_disable_port
                0x00000000       0x54 drivers/net/fm/libfm.o
 .data          0x00000000        0x0 drivers/net/fm/libfm.o
 .bss           0x00000000        0x0 drivers/net/fm/libfm.o
 .text          0x00000000        0x0 drivers/net/libnet.o
 .data          0x00000000        0x0 drivers/net/libnet.o
 .bss           0x00000000        0x0 drivers/net/libnet.o
 .text          0x00000000        0x0 drivers/net/phy/libphy.o
 .text.miiphy_reset
                0x00000000       0x34 drivers/net/phy/libphy.o
 .data          0x00000000        0x0 drivers/net/phy/libphy.o
 .bss           0x00000000        0x0 drivers/net/phy/libphy.o
 .text          0x00000000        0x0 drivers/pci/libpci.o
 .text.pci_hose_read_config_byte_via_dword
                0x00000000       0x58 drivers/pci/libpci.o
 .text.pci_hose_read_config_word_via_dword
                0x00000000       0x58 drivers/pci/libpci.o
 .text.pci_hose_write_config_byte_via_dword
                0x00000000       0x7c drivers/pci/libpci.o
 .text.pci_hose_write_config_word_via_dword
                0x00000000       0x80 drivers/pci/libpci.o
 .text.pci_last_busno
                0x00000000       0x50 drivers/pci/libpci.o
 .text.pci_find_devices
                0x00000000      0x108 drivers/pci/libpci.o
 .text.pci_find_device
                0x00000000       0x38 drivers/pci/libpci.o
 .text.__pci_hose_phys_to_bus
                0x00000000       0xd8 drivers/pci/libpci.o
 .text.pci_hose_phys_to_bus
                0x00000000       0x94 drivers/pci/libpci.o
 .text.__pci_hose_bus_to_phys
                0x00000000       0xe0 drivers/pci/libpci.o
 .text.pci_hose_bus_to_phys
                0x00000000       0x94 drivers/pci/libpci.o
 .text.pci_map_bar
                0x00000000       0x4c drivers/pci/libpci.o
 .text.pci_hose_config_device
                0x00000000      0x1fc drivers/pci/libpci.o
 .text.pci_find_config
                0x00000000       0x9c drivers/pci/libpci.o
 .text.pci_cfgfunc_config_device
                0x00000000       0x34 drivers/pci/libpci.o
 .text.pci_cfgfunc_do_nothing
                0x00000000        0x4 drivers/pci/libpci.o
 .text.pci_hose_scan
                0x00000000       0x48 drivers/pci/libpci.o
 .data          0x00000000        0x0 drivers/pci/libpci.o
 .bss           0x00000000        0x0 drivers/pci/libpci.o
 .bss.ids.6059  0x00000000       0x10 drivers/pci/libpci.o
 .text          0x00000000        0x0 drivers/pcmcia/libpcmcia.o
 .data          0x00000000        0x0 drivers/pcmcia/libpcmcia.o
 .bss           0x00000000        0x0 drivers/pcmcia/libpcmcia.o
 .text          0x00000000        0x0 drivers/rtc/librtc.o
 .text.mktime   0x00000000       0x6c drivers/rtc/librtc.o
 .data          0x00000000        0x0 drivers/rtc/librtc.o
 .bss           0x00000000        0x0 drivers/rtc/librtc.o
 .text          0x00000000        0x0 drivers/serial/libserial.o
 .text.serial_reinit_all
                0x00000000       0x44 drivers/serial/libserial.o
 .text.default_serial_puts
                0x00000000       0x44 drivers/serial/libserial.o
 .text._serial_putc_raw
                0x00000000       0x3c drivers/serial/libserial.o
 .data          0x00000000        0x0 drivers/serial/libserial.o
 .bss           0x00000000        0x0 drivers/serial/libserial.o
 .text          0x00000000        0x0 fs/ext4/libext4fs.o
 .data          0x00000000        0x0 fs/ext4/libext4fs.o
 .bss           0x00000000        0x0 fs/ext4/libext4fs.o
 .text          0x00000000        0x0 fs/fat/libfat.o
 .text.fat_register_device
                0x00000000       0x90 fs/fat/libfat.o
 .text.file_getfsname
                0x00000000       0x3c fs/fat/libfat.o
 .text.file_cd  0x00000000      0x224 fs/fat/libfat.o
 .text.file_detectfs
                0x00000000       0x50 fs/fat/libfat.o
 .text.file_ls  0x00000000       0x90 fs/fat/libfat.o
 .text.file_read
                0x00000000       0xa0 fs/fat/libfat.o
 .data          0x00000000        0x0 fs/fat/libfat.o
 .data.file_cwd
                0x00000000      0x200 fs/fat/libfat.o
 .data.current_filesystem
                0x00000000        0x4 fs/fat/libfat.o
 .bss           0x00000000        0x0 fs/fat/libfat.o
 .text          0x00000000        0x0 fs/libfs.o
 .data          0x00000000        0x0 fs/libfs.o
 .bss           0x00000000        0x0 fs/libfs.o
 .text          0x00000000        0x0 lib/libfdt/libfdt.o
 .text.fdt_create_empty_tree
                0x00000000       0x88 lib/libfdt/libfdt.o
 .text.fdt_getprop_by_offset
                0x00000000       0x54 lib/libfdt/libfdt.o
 .text.fdt_appendprop
                0x00000000       0xe0 lib/libfdt/libfdt.o
 .text.fdt_pack
                0x00000000       0x5c lib/libfdt/libfdt.o
 .text._fdt_grab_space
                0x00000000       0x44 lib/libfdt/libfdt.o
 .text.fdt_create
                0x00000000       0x70 lib/libfdt/libfdt.o
 .text.fdt_add_reservemap_entry
                0x00000000       0x68 lib/libfdt/libfdt.o
 .text.fdt_finish_reservemap
                0x00000000       0x30 lib/libfdt/libfdt.o
 .text.fdt_begin_node
                0x00000000       0x88 lib/libfdt/libfdt.o
 .text.fdt_end_node
                0x00000000       0x5c lib/libfdt/libfdt.o
 .text.fdt_property
                0x00000000      0x10c lib/libfdt/libfdt.o
 .text.fdt_finish
                0x00000000       0xf0 lib/libfdt/libfdt.o
 .text.fdt_nop_property
                0x00000000       0x54 lib/libfdt/libfdt.o
 .text.fdt_nop_node
                0x00000000       0x64 lib/libfdt/libfdt.o
 .data          0x00000000        0x0 lib/libfdt/libfdt.o
 .bss           0x00000000        0x0 lib/libfdt/libfdt.o
 .text          0x00000000        0x0 lib/libgeneric.o
 .text.crc7     0x00000000       0x50 lib/libgeneric.o
 .text.ldiv     0x00000000       0x30 lib/libgeneric.o
 .text.lmb_dump_all
                0x00000000        0x4 lib/libgeneric.o
 .text.lmb_is_reserved
                0x00000000       0x78 lib/libgeneric.o
 .text.__arch_lmb_reserve
                0x00000000        0x4 lib/libgeneric.o
 .text.md5      0x00000000       0x80 lib/libgeneric.o
 .text.sha1_csum
                0x00000000       0x48 lib/libgeneric.o
 .text.sha1_hmac
                0x00000000      0x138 lib/libgeneric.o
 .text.sha1_self_test
                0x00000000        0x8 lib/libgeneric.o
 .text.strncasecmp
                0x00000000       0x9c lib/libgeneric.o
 .text.strcasecmp
                0x00000000       0x24 lib/libgeneric.o
 .text.strspn   0x00000000       0x44 lib/libgeneric.o
 .text.strtok   0x00000000       0x9c lib/libgeneric.o
 .text.strsep   0x00000000       0x4c lib/libgeneric.o
 .text.strswab  0x00000000       0x4c lib/libgeneric.o
 .text.memscan  0x00000000       0x24 lib/libgeneric.o
 .text.mdelay   0x00000000       0x38 lib/libgeneric.o
 .text.ustrtoul
                0x00000000       0x90 lib/libgeneric.o
 .text.__assert_fail
                0x00000000       0x24 lib/libgeneric.o
 .text.simple_itoa
                0x00000000       0x68 lib/libgeneric.o
 .rodata.crc7_syndrome_table
                0x00000000      0x100 lib/libgeneric.o
 .data          0x00000000        0x0 lib/libgeneric.o
 .bss           0x00000000        0x0 lib/libgeneric.o
 .bss.local.6174
                0x00000000       0x16 lib/libgeneric.o
 .sbss          0x00000000        0x4 lib/libgeneric.o
 .text          0x00000000        0x0 lib/zlib/libz.o
 .text.inflateInit_
                0x00000000       0x30 lib/zlib/libz.o
 .data          0x00000000        0x0 lib/zlib/libz.o
 .bss           0x00000000        0x0 lib/zlib/libz.o
 .text          0x00000000        0x0 net/libnet.o
 .text.eth_get_dev_by_name
                0x00000000       0x88 net/libnet.o
 .text.eth_get_dev_by_index
                0x00000000       0x5c net/libnet.o
 .text.eth_unregister
                0x00000000       0xb4 net/libnet.o
 .text.net_get_udp_handler
                0x00000000       0x2c net/libnet.o
 .text.random_port
                0x00000000       0x2c net/libnet.o
 .text.VLAN_to_string
                0x00000000       0x54 net/libnet.o
 .rodata.__FUNCTION__.6487
                0x00000000       0x14 net/libnet.o
 .data          0x00000000        0x0 net/libnet.o
 .sdata.TftpRRQTimeoutMSecs
                0x00000000        0x4 net/libnet.o
 .bss           0x00000000        0x0 net/libnet.o
 .text          0x00000000        0x0 post/libpost.o
 .text.post_info_single
                0x00000000       0x60 post/libpost.o
 .text.post_info
                0x00000000       0xc4 post/libpost.o
 .text.arch_memory_test_prepare
                0x00000000       0x64 post/libpost.o
 .text.arch_memory_test_advance
                0x00000000        0x8 post/libpost.o
 .text.arch_memory_test_cleanup
                0x00000000        0x8 post/libpost.o
 .text.arch_memory_failure_handle
                0x00000000        0x4 post/libpost.o
 .text.memory_regions_post_test
                0x00000000       0x5c post/libpost.o
 .text.generic_ffs
                0x00000000      0x380 post/libpost.o
 .text.generic_fls
                0x00000000      0x320 post/libpost.o
 .text.generic_hweight32
                0x00000000      0x380 post/libpost.o
 .text.generic_hweight16
                0x00000000      0x200 post/libpost.o
 .text.generic_hweight8
                0x00000000      0x180 post/libpost.o
 .text.___arch__swab16
                0x00000000       0x80 post/libpost.o
 .text.___arch__swab32
                0x00000000       0xc0 post/libpost.o
 .text.__gcc_qadd
                0x00000000       0xf8 post/libpost.o
 .text.__gcc_qsub
                0x00000000       0x28 post/libpost.o
 .text.__gcc_qmul
                0x00000000       0xa0 post/libpost.o
 .rodata.cst4   0x00000000        0x8 post/libpost.o
 .rodata.cst8   0x00000000        0x8 post/libpost.o
 .sdata.otherpattern
                0x00000000        0x8 post/libpost.o
 .bss           0x00000000        0x0 post/libpost.o
 .text          0x00000000        0x0 board/freescale/cxo160/libcxo160.o
 .data          0x00000000        0x0 board/freescale/cxo160/libcxo160.o
 .bss           0x00000000        0x0 board/freescale/cxo160/libcxo160.o
 .data          0x00000000        0x0 /opt/fsl/1.2/sysroots/ppce500mc-fsl-linux/usr/lib/powerpc-fsl-linux/4.6.2/libgcc.a(_lshrdi3.o)
 .bss           0x00000000        0x0 /opt/fsl/1.2/sysroots/ppce500mc-fsl-linux/usr/lib/powerpc-fsl-linux/4.6.2/libgcc.a(_lshrdi3.o)
 .data          0x00000000        0x0 /opt/fsl/1.2/sysroots/ppce500mc-fsl-linux/usr/lib/powerpc-fsl-linux/4.6.2/libgcc.a(_ashldi3.o)
 .bss           0x00000000        0x0 /opt/fsl/1.2/sysroots/ppce500mc-fsl-linux/usr/lib/powerpc-fsl-linux/4.6.2/libgcc.a(_ashldi3.o)
 .text          0x00000000      0x444 /opt/fsl/1.2/sysroots/ppce500mc-fsl-linux/usr/lib/powerpc-fsl-linux/4.6.2/libgcc.a(_udivdi3.o)
 .data          0x00000000        0x0 /opt/fsl/1.2/sysroots/ppce500mc-fsl-linux/usr/lib/powerpc-fsl-linux/4.6.2/libgcc.a(_udivdi3.o)
 .bss           0x00000000        0x0 /opt/fsl/1.2/sysroots/ppce500mc-fsl-linux/usr/lib/powerpc-fsl-linux/4.6.2/libgcc.a(_udivdi3.o)
 .eh_frame      0x00000000       0x4c /opt/fsl/1.2/sysroots/ppce500mc-fsl-linux/usr/lib/powerpc-fsl-linux/4.6.2/libgcc.a(_udivdi3.o)
 .data          0x00000000        0x0 /opt/fsl/1.2/sysroots/ppce500mc-fsl-linux/usr/lib/powerpc-fsl-linux/4.6.2/libgcc.a(crtsavgpr.o)
 .bss           0x00000000        0x0 /opt/fsl/1.2/sysroots/ppce500mc-fsl-linux/usr/lib/powerpc-fsl-linux/4.6.2/libgcc.a(crtsavgpr.o)
 .eh_frame      0x00000000       0x28 /opt/fsl/1.2/sysroots/ppce500mc-fsl-linux/usr/lib/powerpc-fsl-linux/4.6.2/libgcc.a(crtsavgpr.o)
 .data          0x00000000        0x0 /opt/fsl/1.2/sysroots/ppce500mc-fsl-linux/usr/lib/powerpc-fsl-linux/4.6.2/libgcc.a(crtresxgpr.o)
 .bss           0x00000000        0x0 /opt/fsl/1.2/sysroots/ppce500mc-fsl-linux/usr/lib/powerpc-fsl-linux/4.6.2/libgcc.a(crtresxgpr.o)
 .eh_frame      0x00000000       0x7c /opt/fsl/1.2/sysroots/ppce500mc-fsl-linux/usr/lib/powerpc-fsl-linux/4.6.2/libgcc.a(crtresxgpr.o)

Memory Configuration

Name             Origin             Length             Attributes
*default*        0x00000000         0xffffffff

Linker script and memory map

                0x00000074                . = SIZEOF_HEADERS

.interp
 *(.interp)

.text           0xe9f80000    0x3f0c8
 *(.text*)
 .text          0xe9f80000     0x1930 arch/powerpc/cpu/mpc85xx/start.o
                0xe9f80000                _start
                0xe9f80004                version_string
                0xe9f80040                _start_cont
                0xe9f80100                _start_of_vectors
                0xe9f80fa4                _end_of_vectors
                0xe9f81000                transfer_to_handler
                0xe9f8133c                flush_icache
                0xe9f8133c                invalidate_icache
                0xe9f81358                invalidate_dcache
                0xe9f81374                icache_enable
                0xe9f8139c                icache_disable
                0xe9f813b8                icache_status
                0xe9f813c4                dcache_enable
                0xe9f813f4                dcache_disable
                0xe9f81410                dcache_status
                0xe9f8141c                get_pir
                0xe9f81424                get_pvr
                0xe9f8142c                get_svr
                0xe9f81434                wr_tcr
                0xe9f8143c                in8
                0xe9f81444                out8
                0xe9f81450                out16
                0xe9f8145c                out16r
                0xe9f81468                out32
                0xe9f81474                out32r
                0xe9f81480                in16
                0xe9f81488                in16r
                0xe9f81490                in32
                0xe9f81498                in32r
                0xe9f814a0                write_tlb
                0xe9f814d0                relocate_code
                0xe9f815b8                in_ram
                0xe9f81650                trap_init
                0xe9f81778                unlock_ram_in_cache
                0xe9f817cc                flush_dcache
                0xe9f81838                setup_ivors
 *fill*         0xe9f81930      0x6d0 00
 .text          0xe9f82000     0x21c0 arch/powerpc/cpu/mpc85xx/libmpc85xx.o
                0xe9f82000                __secondary_start_page
                0xe9f82240                __bootpg_addr
                0xe9f82244                __spin_table_addr
                0xe9f82280                enable_cpu_a011_workaround
                0xe9f83000                __second_half_boot_page
                0xe9f831c0                __spin_table
                0xe9f832c0                spin_table_compat
 .text.do_errata
                0xe9f841c0       0xdc arch/powerpc/cpu/mpc85xx/libmpc85xx.o
 .text.fsl_ddr_set_memctl_regs
                0xe9f8429c      0x840 arch/powerpc/cpu/mpc85xx/libmpc85xx.o
                0xe9f8429c                fsl_ddr_set_memctl_regs
 .text.ft_fixup_cpu
                0xe9f84adc      0x288 arch/powerpc/cpu/mpc85xx/libmpc85xx.o
                0xe9f84adc                ft_fixup_cpu
 .text.fdt_add_enet_stashing
                0xe9f84d64       0xcc arch/powerpc/cpu/mpc85xx/libmpc85xx.o
                0xe9f84d64                fdt_add_enet_stashing
 .text.fdt_fixup_fman_firmware
                0xe9f84e30      0x274 arch/powerpc/cpu/mpc85xx/libmpc85xx.o
                0xe9f84e30                fdt_fixup_fman_firmware
 .text.ft_cpu_setup
                0xe9f850a4      0x8b8 arch/powerpc/cpu/mpc85xx/libmpc85xx.o
                0xe9f850a4                ft_cpu_setup
 .text.ft_verify_fdt
                0xe9f8595c      0x16c arch/powerpc/cpu/mpc85xx/libmpc85xx.o
                0xe9f8595c                ft_verify_fdt
 .text.set_liodn
                0xe9f85ac8       0x4c arch/powerpc/cpu/mpc85xx/libmpc85xx.o
 .text.fdt_fixup_liodn_tbl
                0xe9f85b14       0xa8 arch/powerpc/cpu/mpc85xx/libmpc85xx.o
 .text.get_dpaa_liodn
                0xe9f85bbc       0x60 arch/powerpc/cpu/mpc85xx/libmpc85xx.o
                0xe9f85bbc                get_dpaa_liodn
 .text.set_liodns
                0xe9f85c1c      0x1ec arch/powerpc/cpu/mpc85xx/libmpc85xx.o
                0xe9f85c1c                set_liodns
 .text.fdt_fixup_liodn
                0xe9f85e08      0x1f0 arch/powerpc/cpu/mpc85xx/libmpc85xx.o
                0xe9f85e08                fdt_fixup_liodn
 .text.get_my_id
                0xe9f85ff8        0x8 arch/powerpc/cpu/mpc85xx/libmpc85xx.o
                0xe9f85ff8                get_my_id
 .text.hold_cores_in_reset
                0xe9f86000       0x58 arch/powerpc/cpu/mpc85xx/libmpc85xx.o
                0xe9f86000                hold_cores_in_reset
 .text.cpu_reset
                0xe9f86058       0x3c arch/powerpc/cpu/mpc85xx/libmpc85xx.o
                0xe9f86058                cpu_reset
 .text.cpu_disable
                0xe9f86094       0x34 arch/powerpc/cpu/mpc85xx/libmpc85xx.o
                0xe9f86094                cpu_disable
 .text.is_core_disabled
                0xe9f860c8       0x28 arch/powerpc/cpu/mpc85xx/libmpc85xx.o
                0xe9f860c8                is_core_disabled
 .text.cpu_status
                0xe9f860f0       0xc0 arch/powerpc/cpu/mpc85xx/libmpc85xx.o
                0xe9f860f0                cpu_status
 .text.cpu_release
                0xe9f861b0       0xe4 arch/powerpc/cpu/mpc85xx/libmpc85xx.o
                0xe9f861b0                cpu_release
 .text.determine_mp_bootpg
                0xe9f86294       0x4c arch/powerpc/cpu/mpc85xx/libmpc85xx.o
                0xe9f86294                determine_mp_bootpg
 .text.get_spin_phys_addr
                0xe9f862e0       0x28 arch/powerpc/cpu/mpc85xx/libmpc85xx.o
                0xe9f862e0                get_spin_phys_addr
 .text.cpu_mp_lmb_reserve
                0xe9f86308       0x40 arch/powerpc/cpu/mpc85xx/libmpc85xx.o
                0xe9f86308                cpu_mp_lmb_reserve
 .text.setup_mp
                0xe9f86348      0x278 arch/powerpc/cpu/mpc85xx/libmpc85xx.o
                0xe9f86348                setup_mp
 .text.fdt_qportal
                0xe9f865c0      0x238 arch/powerpc/cpu/mpc85xx/libmpc85xx.o
 .text.setup_portals
                0xe9f867f8       0xa4 arch/powerpc/cpu/mpc85xx/libmpc85xx.o
                0xe9f867f8                setup_portals
 .text.fdt_portal
                0xe9f8689c      0x174 arch/powerpc/cpu/mpc85xx/libmpc85xx.o
                0xe9f8689c                fdt_portal
 .text.fdt_fixup_qportals
                0xe9f86a10      0x238 arch/powerpc/cpu/mpc85xx/libmpc85xx.o
                0xe9f86a10                fdt_fixup_qportals
 .text.fdt_fixup_bportals
                0xe9f86c48      0x10c arch/powerpc/cpu/mpc85xx/libmpc85xx.o
                0xe9f86c48                fdt_fixup_bportals
 .text.serdes_get_bank_by_lane
                0xe9f86d54       0x34 arch/powerpc/cpu/mpc85xx/libmpc85xx.o
                0xe9f86d54                serdes_get_bank_by_lane
 .text.serdes_lane_enabled
                0xe9f86d88       0x8c arch/powerpc/cpu/mpc85xx/libmpc85xx.o
                0xe9f86d88                serdes_lane_enabled
 .text.is_serdes_configured
                0xe9f86e14       0x60 arch/powerpc/cpu/mpc85xx/libmpc85xx.o
                0xe9f86e14                is_serdes_configured
 .text.serdes_get_first_lane
                0xe9f86e74       0x88 arch/powerpc/cpu/mpc85xx/libmpc85xx.o
                0xe9f86e74                serdes_get_first_lane
 .text.__soc_serdes_init
                0xe9f86efc        0x4 arch/powerpc/cpu/mpc85xx/libmpc85xx.o
                0xe9f86efc                soc_serdes_init
 .text.fsl_serdes_init
                0xe9f86f00      0x1e4 arch/powerpc/cpu/mpc85xx/libmpc85xx.o
                0xe9f86f00                fsl_serdes_init
 .text.serdes_get_prtcl
                0xe9f870e4       0x80 arch/powerpc/cpu/mpc85xx/libmpc85xx.o
                0xe9f870e4                serdes_get_prtcl
 .text.is_serdes_prtcl_valid
                0xe9f87164       0x94 arch/powerpc/cpu/mpc85xx/libmpc85xx.o
                0xe9f87164                is_serdes_prtcl_valid
 .text.__board_reset
                0xe9f871f8        0x4 arch/powerpc/cpu/mpc85xx/libmpc85xx.o
                0xe9f871f8                board_reset
 .text.checkcpu
                0xe9f871fc      0x2c8 arch/powerpc/cpu/mpc85xx/libmpc85xx.o
                0xe9f871fc                checkcpu
 .text.do_reset
                0xe9f874c4       0x40 arch/powerpc/cpu/mpc85xx/libmpc85xx.o
                0xe9f874c4                do_reset
 .text.get_tbclk
                0xe9f87504       0x10 arch/powerpc/cpu/mpc85xx/libmpc85xx.o
                0xe9f87504                get_tbclk
 .text.cpu_mmc_init
                0xe9f87514       0x20 arch/powerpc/cpu/mpc85xx/libmpc85xx.o
                0xe9f87514                cpu_mmc_init
 .text.mpc85xx_reginfo
                0xe9f87534       0x28 arch/powerpc/cpu/mpc85xx/libmpc85xx.o
                0xe9f87534                mpc85xx_reginfo
 .text.arch_memory_test_advance
                0xe9f8755c      0x180 arch/powerpc/cpu/mpc85xx/libmpc85xx.o
                0xe9f8755c                arch_memory_test_advance
 .text.arch_memory_test_prepare
                0xe9f876dc       0xa8 arch/powerpc/cpu/mpc85xx/libmpc85xx.o
                0xe9f876dc                arch_memory_test_prepare
 .text.arch_memory_test_cleanup
                0xe9f87784       0xcc arch/powerpc/cpu/mpc85xx/libmpc85xx.o
                0xe9f87784                arch_memory_test_cleanup
 .text.arch_memory_failure_handle
                0xe9f87850      0x150 arch/powerpc/cpu/mpc85xx/libmpc85xx.o
                0xe9f87850                arch_memory_failure_handle
 .text.cpu_init_f
                0xe9f879a0       0xe4 arch/powerpc/cpu/mpc85xx/libmpc85xx.o
                0xe9f879a0                cpu_init_f
 .text.cpu_init_r
                0xe9f87a84      0x24c arch/powerpc/cpu/mpc85xx/libmpc85xx.o
                0xe9f87a84                cpu_init_r
 .text.arch_preboot_os
                0xe9f87cd0       0x34 arch/powerpc/cpu/mpc85xx/libmpc85xx.o
                0xe9f87cd0                arch_preboot_os
 .text.cpu_secondary_init_r
                0xe9f87d04        0x4 arch/powerpc/cpu/mpc85xx/libmpc85xx.o
                0xe9f87d04                cpu_secondary_init_r
 .text.cpu_init_early_f
                0xe9f87d08       0x78 arch/powerpc/cpu/mpc85xx/libmpc85xx.o
                0xe9f87d08                cpu_init_early_f
 .text.interrupt_init_cpu
                0xe9f87d80       0xb4 arch/powerpc/cpu/mpc85xx/libmpc85xx.o
                0xe9f87d80                interrupt_init_cpu
 .text.irq_install_handler
                0xe9f87e34        0x4 arch/powerpc/cpu/mpc85xx/libmpc85xx.o
                0xe9f87e34                irq_install_handler
 .text.irq_free_handler
                0xe9f87e38        0x4 arch/powerpc/cpu/mpc85xx/libmpc85xx.o
                0xe9f87e38                irq_free_handler
 .text.timer_interrupt_cpu
                0xe9f87e3c        0xc arch/powerpc/cpu/mpc85xx/libmpc85xx.o
                0xe9f87e3c                timer_interrupt_cpu
 .text.do_irqinfo
                0xe9f87e48        0x8 arch/powerpc/cpu/mpc85xx/libmpc85xx.o
                0xe9f87e48                do_irqinfo
 .text.get_sys_info
                0xe9f87e50      0x30c arch/powerpc/cpu/mpc85xx/libmpc85xx.o
                0xe9f87e50                get_sys_info
 .text.get_clocks
                0xe9f8815c       0x6c arch/powerpc/cpu/mpc85xx/libmpc85xx.o
                0xe9f8815c                get_clocks
 .text.get_bus_freq
                0xe9f881c8        0x8 arch/powerpc/cpu/mpc85xx/libmpc85xx.o
                0xe9f881c8                get_bus_freq
 .text.get_ddr_freq
                0xe9f881d0        0x8 arch/powerpc/cpu/mpc85xx/libmpc85xx.o
                0xe9f881d0                get_ddr_freq
 .text.invalidate_tlb
                0xe9f881d8       0x24 arch/powerpc/cpu/mpc85xx/libmpc85xx.o
                0xe9f881d8                invalidate_tlb
 .text.init_tlbs
                0xe9f881fc       0x5c arch/powerpc/cpu/mpc85xx/libmpc85xx.o
                0xe9f881fc                init_tlbs
 .text.read_tlbcam_entry
                0xe9f88258       0x4c arch/powerpc/cpu/mpc85xx/libmpc85xx.o
                0xe9f88258                read_tlbcam_entry
 .text.print_tlbcam
                0xe9f882a4       0xa8 arch/powerpc/cpu/mpc85xx/libmpc85xx.o
                0xe9f882a4                print_tlbcam
 .text.init_used_tlb_cams
                0xe9f8834c       0x78 arch/powerpc/cpu/mpc85xx/libmpc85xx.o
                0xe9f8834c                init_used_tlb_cams
 .text.find_free_tlbcam
                0xe9f883c4       0x78 arch/powerpc/cpu/mpc85xx/libmpc85xx.o
                0xe9f883c4                find_free_tlbcam
 .text.set_tlb  0xe9f8843c      0x10c arch/powerpc/cpu/mpc85xx/libmpc85xx.o
                0xe9f8843c                set_tlb
 .text.disable_tlb
                0xe9f88548       0x94 arch/powerpc/cpu/mpc85xx/libmpc85xx.o
                0xe9f88548                disable_tlb
 .text.find_tlb_idx
                0xe9f885dc       0x38 arch/powerpc/cpu/mpc85xx/libmpc85xx.o
                0xe9f885dc                find_tlb_idx
 .text.init_addr_map
                0xe9f88614       0x94 arch/powerpc/cpu/mpc85xx/libmpc85xx.o
                0xe9f88614                init_addr_map
 .text.setup_ddr_tlbs_phys
                0xe9f886a8      0x1a8 arch/powerpc/cpu/mpc85xx/libmpc85xx.o
                0xe9f886a8                setup_ddr_tlbs_phys
 .text.setup_ddr_tlbs
                0xe9f88850       0x2c arch/powerpc/cpu/mpc85xx/libmpc85xx.o
                0xe9f88850                setup_ddr_tlbs
 .text.clear_ddr_tlbs_phys
                0xe9f8887c       0xac arch/powerpc/cpu/mpc85xx/libmpc85xx.o
                0xe9f8887c                clear_ddr_tlbs_phys
 .text.print_backtrace
                0xe9f88928       0xa4 arch/powerpc/cpu/mpc85xx/libmpc85xx.o
 .text.show_regs
                0xe9f889cc       0xc4 arch/powerpc/cpu/mpc85xx/libmpc85xx.o
                0xe9f889cc                show_regs
 .text.CritcalInputException
                0xe9f88a90       0x20 arch/powerpc/cpu/mpc85xx/libmpc85xx.o
                0xe9f88a90                CritcalInputException
 .text.MachineCheckException
                0xe9f88ab0      0x1a4 arch/powerpc/cpu/mpc85xx/libmpc85xx.o
                0xe9f88ab0                MachineCheckException
 .text.AlignmentException
                0xe9f88c54       0x30 arch/powerpc/cpu/mpc85xx/libmpc85xx.o
                0xe9f88c54                AlignmentException
 .text.ProgramCheckException
                0xe9f88c84       0x5c arch/powerpc/cpu/mpc85xx/libmpc85xx.o
                0xe9f88c84                ProgramCheckException
 .text.UnknownException
                0xe9f88ce0       0x50 arch/powerpc/cpu/mpc85xx/libmpc85xx.o
                0xe9f88ce0                UnknownException
 .text.ExtIntException
                0xe9f88d30       0x68 arch/powerpc/cpu/mpc85xx/libmpc85xx.o
                0xe9f88d30                ExtIntException
 .text.DebugException
                0xe9f88d98       0x38 arch/powerpc/cpu/mpc85xx/libmpc85xx.o
                0xe9f88d98                DebugException
 .text.invalidate_dcache_range
                0xe9f88dd0        0x4 arch/powerpc/cpu/mpc85xx/libmpc85xx.o
                0xe9f88dd0                invalidate_dcache_range
 .text.flush_dcache_range
                0xe9f88dd4        0x4 arch/powerpc/cpu/mpc85xx/libmpc85xx.o
                0xe9f88dd4                flush_dcache_range
 .text.fsl_ddr_get_spd
                0xe9f88dd8        0x4 arch/powerpc/cpu/mpc8xxx/ddr/libddr.o
                0xe9f88dd8                fsl_ddr_get_spd
 .text.fsl_ddr_get_intl3r
                0xe9f88ddc        0x8 arch/powerpc/cpu/mpc8xxx/ddr/libddr.o
                0xe9f88ddc                fsl_ddr_get_intl3r
 .text.board_add_ram_info
                0xe9f88de4      0x168 arch/powerpc/cpu/mpc8xxx/ddr/libddr.o
                0xe9f88de4                board_add_ram_info
 .text.identify_cpu
                0xe9f88f4c       0x68 arch/powerpc/cpu/mpc8xxx/lib8xxx.o
                0xe9f88f4c                identify_cpu
 .text.cpu_mask
                0xe9f88fb4       0x6c arch/powerpc/cpu/mpc8xxx/lib8xxx.o
                0xe9f88fb4                cpu_mask
 .text.cpu_numcores
                0xe9f89020       0x9c arch/powerpc/cpu/mpc8xxx/lib8xxx.o
                0xe9f89020                cpu_numcores
 .text.is_core_valid
                0xe9f890bc       0x3c arch/powerpc/cpu/mpc8xxx/lib8xxx.o
                0xe9f890bc                is_core_valid
 .text.probecpu
                0xe9f890f8       0x40 arch/powerpc/cpu/mpc8xxx/lib8xxx.o
                0xe9f890f8                probecpu
 .text.fixup_cpu
                0xe9f89138       0x40 arch/powerpc/cpu/mpc8xxx/lib8xxx.o
                0xe9f89138                fixup_cpu
 .text.cpu_eth_init
                0xe9f89178       0x24 arch/powerpc/cpu/mpc8xxx/lib8xxx.o
                0xe9f89178                cpu_eth_init
 .text.ft_fixup_num_cores
                0xe9f8919c      0x134 arch/powerpc/cpu/mpc8xxx/lib8xxx.o
                0xe9f8919c                ft_fixup_num_cores
 .text.fdt_fixup_crypto_node
                0xe9f892d0      0x124 arch/powerpc/cpu/mpc8xxx/lib8xxx.o
                0xe9f892d0                fdt_fixup_crypto_node
 .text.fdt_fixup_phy_connection
                0xe9f893f4       0x60 arch/powerpc/cpu/mpc8xxx/lib8xxx.o
                0xe9f893f4                fdt_fixup_phy_connection
 .text.print_lbc_regs
                0xe9f89454       0xb0 arch/powerpc/cpu/mpc8xxx/lib8xxx.o
                0xe9f89454                print_lbc_regs
 .text.init_early_memctl_regs
                0xe9f89504       0xac arch/powerpc/cpu/mpc8xxx/lib8xxx.o
                0xe9f89504                init_early_memctl_regs
 .text.set_law  0xe9f895b0       0x74 arch/powerpc/cpu/mpc8xxx/lib8xxx.o
                0xe9f895b0                set_law
 .text.set_next_law
                0xe9f89624       0x68 arch/powerpc/cpu/mpc8xxx/lib8xxx.o
                0xe9f89624                set_next_law
 .text.set_last_law
                0xe9f8968c       0x6c arch/powerpc/cpu/mpc8xxx/lib8xxx.o
                0xe9f8968c                set_last_law
 .text.find_law
                0xe9f896f8       0xfc arch/powerpc/cpu/mpc8xxx/lib8xxx.o
                0xe9f896f8                find_law
 .text.print_laws
                0xe9f897f4       0xd0 arch/powerpc/cpu/mpc8xxx/lib8xxx.o
                0xe9f897f4                print_laws
 .text.set_ddr_laws
                0xe9f898c4      0x1e4 arch/powerpc/cpu/mpc8xxx/lib8xxx.o
                0xe9f898c4                set_ddr_laws
 .text.init_laws
                0xe9f89aa8       0xdc arch/powerpc/cpu/mpc8xxx/lib8xxx.o
                0xe9f89aa8                init_laws
 .text          0xe9f89b84      0x334 arch/powerpc/lib/libpowerpc.o
                0xe9f89b84                strcpy
                0xe9f89ba0                strncpy
                0xe9f89bc8                strcat
                0xe9f89bf4                strcmp
                0xe9f89c18                strlen
                0xe9f89c30                memset
                0xe9f89c8c                bcopy
                0xe9f89c9c                memmove
                0xe9f89ca4                memcpy
                0xe9f89d40                backwards_memcpy
                0xe9f89dc8                memcmp
                0xe9f89df8                memchr
                0xe9f89e20                ppcDcbf
                0xe9f89e28                ppcDcbi
                0xe9f89e30                ppcDcbz
                0xe9f89e38                ppcSync
                0xe9f89e40                get_ticks
                0xe9f89e58                wait_ticks
                0xe9f89e90                trap_reloc
 .text.init_baudrate
                0xe9f89eb8       0x40 arch/powerpc/lib/libpowerpc.o
 .text.init_func_i2c
                0xe9f89ef8       0x44 arch/powerpc/lib/libpowerpc.o
 .text.init_func_ram
                0xe9f89f3c       0x80 arch/powerpc/lib/libpowerpc.o
 .text.__board_flash_wp_on
                0xe9f89fbc        0x8 arch/powerpc/lib/libpowerpc.o
                0xe9f89fbc                board_flash_wp_on
 .text.get_effective_memsize
                0xe9f89fc4       0x10 arch/powerpc/lib/libpowerpc.o
                0xe9f89fc4                get_effective_memsize
 .text.hang     0xe9f89fd4       0x2c arch/powerpc/lib/libpowerpc.o
                0xe9f89fd4                hang
 .text.board_init_r
                0xe9f8a000      0x174 arch/powerpc/lib/libpowerpc.o
                0xe9f8a000                board_init_r
 .text.board_init_f
                0xe9f8a174      0x138 arch/powerpc/lib/libpowerpc.o
                0xe9f8a174                board_init_f
 .text.boot_cmdline_linux
                0xe9f8a2ac       0x58 arch/powerpc/lib/libpowerpc.o
 .text.boot_bd_t_linux
                0xe9f8a304       0x8c arch/powerpc/lib/libpowerpc.o
 .text.boot_jump_linux
                0xe9f8a390       0x80 arch/powerpc/lib/libpowerpc.o
 .text.arch_lmb_reserve
                0xe9f8a410       0xd4 arch/powerpc/lib/libpowerpc.o
                0xe9f8a410                arch_lmb_reserve
 .text.do_bootm_linux
                0xe9f8a4e4      0x200 arch/powerpc/lib/libpowerpc.o
                0xe9f8a4e4                do_bootm_linux
 .text.flush_cache
                0xe9f8a6e4       0x5c arch/powerpc/lib/libpowerpc.o
                0xe9f8a6e4                flush_cache
 .text.search_exception_table
                0xe9f8a740       0x58 arch/powerpc/lib/libpowerpc.o
                0xe9f8a740                search_exception_table
 .text.enable_interrupts
                0xe9f8a798       0x10 arch/powerpc/lib/libpowerpc.o
                0xe9f8a798                enable_interrupts
 .text.disable_interrupts
                0xe9f8a7a8       0x14 arch/powerpc/lib/libpowerpc.o
                0xe9f8a7a8                disable_interrupts
 .text.interrupt_init
                0xe9f8a7bc       0x50 arch/powerpc/lib/libpowerpc.o
                0xe9f8a7bc                interrupt_init
 .text.timer_interrupt
                0xe9f8a80c       0x48 arch/powerpc/lib/libpowerpc.o
                0xe9f8a80c                timer_interrupt
 .text.get_timer
                0xe9f8a854       0x30 arch/powerpc/lib/libpowerpc.o
                0xe9f8a854                get_timer
 .text.usec2ticks
                0xe9f8a884       0x60 arch/powerpc/lib/libpowerpc.o
                0xe9f8a884                usec2ticks
 .text.__udelay
                0xe9f8a8e4       0x24 arch/powerpc/lib/libpowerpc.o
                0xe9f8a8e4                __udelay
 .text.init_timebase
                0xe9f8a908       0x14 arch/powerpc/lib/libpowerpc.o
                0xe9f8a908                init_timebase
 .text.fdt_set_phy_handle
                0xe9f8a91c       0xa8 board/freescale/common/libfreescale.o
                0xe9f8a91c                fdt_set_phy_handle
 .text.pci_init_board
                0xe9f8a9c4       0x24 board/freescale/common/libfreescale.o
                0xe9f8a9c4                pci_init_board
 .text.pci_of_setup
                0xe9f8a9e8       0x70 board/freescale/common/libfreescale.o
                0xe9f8a9e8                pci_of_setup
 .text.print_num
                0xe9f8aa58       0x34 common/libcommon.o
 .text.do_bdinfo
                0xe9f8aa8c      0x13c common/libcommon.o
                0xe9f8aa8c                do_bdinfo
 .text.__board_detail
                0xe9f8abc8        0x4 common/libcommon.o
                0xe9f8abc8                board_detail
 .text.do_go_exec
                0xe9f8abcc       0x30 common/libcommon.o
                0xe9f8abcc                do_go_exec
 .text.do_go    0xe9f8abfc       0x80 common/libcommon.o
 .text.do_imls  0xe9f8ac7c      0x104 common/libcommon.o
 .text.image_info
                0xe9f8ad80      0x10c common/libcommon.o
 .text.do_bootd
                0xe9f8ae8c       0x38 common/libcommon.o
                0xe9f8ae8c                do_bootd
 .text.do_bootm_rtems
                0xe9f8aec4       0x7c common/libcommon.o
 .text.do_iminfo
                0xe9f8af40       0x84 common/libcommon.o
 .text.do_bootm_qnxelf
                0xe9f8afc4       0x90 common/libcommon.o
 .text.do_bootm_vxworks
                0xe9f8b054       0x88 common/libcommon.o
 .text.do_bootm_netbsd
                0xe9f8b0dc      0x164 common/libcommon.o
 .text.bootm_load_os.isra.16
                0xe9f8b240      0x170 common/libcommon.o
 .text.bootm_start
                0xe9f8b3b0      0x720 common/libcommon.o
 .text.do_bootm
                0xe9f8bad0      0x4c4 common/libcommon.o
                0xe9f8bad0                do_bootm
 .text.bootm_maybe_autostart
                0xe9f8bf94       0x80 common/libcommon.o
                0xe9f8bf94                bootm_maybe_autostart
 .text.do_coninfo
                0xe9f8c014       0xdc common/libcommon.o
 .text.cnvrt2   0xe9f8c0f0       0x44 common/libcommon.o
 .text.mk_date  0xe9f8c134      0x1f8 common/libcommon.o
                0xe9f8c134                mk_date
 .text.do_date  0xe9f8c32c      0x124 common/libcommon.o
 .text.do_echo  0xe9f8c450       0xc8 common/libcommon.o
 .text.load_elf_image_shdr
                0xe9f8c518       0x9c common/libcommon.o
 .text.do_bootelf_exec
                0xe9f8c5b4       0x58 common/libcommon.o
                0xe9f8c5b4                do_bootelf_exec
 .text.valid_elf_image
                0xe9f8c60c       0x54 common/libcommon.o
                0xe9f8c60c                valid_elf_image
 .text.do_bootvx
                0xe9f8c660      0x26c common/libcommon.o
                0xe9f8c660                do_bootvx
 .text.do_bootelf
                0xe9f8c8cc      0x168 common/libcommon.o
                0xe9f8c8cc                do_bootelf
 .text.do_exit  0xe9f8ca34       0x3c common/libcommon.o
 .text.do_ext2load
                0xe9f8ca70       0x28 common/libcommon.o
                0xe9f8ca70                do_ext2load
 .text.do_ext2ls
                0xe9f8ca98       0x24 common/libcommon.o
                0xe9f8ca98                do_ext2ls
 .text.do_fat_ls
                0xe9f8cabc       0x24 common/libcommon.o
 .text.do_fat_fsload
                0xe9f8cae0       0x28 common/libcommon.o
                0xe9f8cae0                do_fat_fsload
 .text.do_fat_fsinfo
                0xe9f8cb08       0x9c common/libcommon.o
 .text.is_printable_string
                0xe9f8cba4       0xcc common/libcommon.o
 .text.fdt_valid
                0xe9f8cc70       0xc8 common/libcommon.o
 .text.print_data
                0xe9f8cd38      0x16c common/libcommon.o
 .text.set_working_fdt_addr
                0xe9f8cea4       0x44 common/libcommon.o
                0xe9f8cea4                set_working_fdt_addr
 .text.do_fdt   0xe9f8cee8      0xd9c common/libcommon.o
 .text.flash_fill_sect_ranges
                0xe9f8dc84      0x16c common/libcommon.o
 .text.abbrev_spec
                0xe9f8ddf0      0x148 common/libcommon.o
 .text.do_flinfo
                0xe9f8df38       0x6c common/libcommon.o
 .text.flash_sect_roundb
                0xe9f8dfa4       0xc0 common/libcommon.o
                0xe9f8dfa4                flash_sect_roundb
 .text.addr_spec
                0xe9f8e064       0xdc common/libcommon.o
 .text.flash_sect_erase
                0xe9f8e140       0xa4 common/libcommon.o
                0xe9f8e140                flash_sect_erase
 .text.do_flerase
                0xe9f8e1e4      0x178 common/libcommon.o
 .text.flash_sect_protect
                0xe9f8e35c       0xd8 common/libcommon.o
                0xe9f8e35c                flash_sect_protect
 .text.do_protect
                0xe9f8e434      0x27c common/libcommon.o
 .text.do_help  0xe9f8e6b0       0x58 common/libcommon.o
 .text.get_alen
                0xe9f8e708       0x48 common/libcommon.o
 .text.do_i2c   0xe9f8e750       0x78 common/libcommon.o
 .text.do_i2c_reset
                0xe9f8e7c8       0x30 common/libcommon.o
 .text.do_i2c_mw
                0xe9f8e7f8       0xfc common/libcommon.o
 .text.do_i2c_read
                0xe9f8e8f4       0xc4 common/libcommon.o
 .text.do_i2c_probe
                0xe9f8e9b8       0xb0 common/libcommon.o
 .text.do_i2c_md
                0xe9f8ea68      0x1c8 common/libcommon.o
 .text.do_i2c_crc
                0xe9f8ec30      0x110 common/libcommon.o
 .text.do_i2c_write
                0xe9f8ed40       0xf0 common/libcommon.o
 .text.do_i2c_loop
                0xe9f8ee30       0xe8 common/libcommon.o
 .text.mod_i2c_mem.isra.2
                0xe9f8ef18      0x1fc common/libcommon.o
 .text.do_i2c_nm
                0xe9f8f114        0x8 common/libcommon.o
 .text.do_i2c_mm
                0xe9f8f11c        0x8 common/libcommon.o
 .text.do_i2c_bus_num
                0xe9f8f124       0x80 common/libcommon.o
 .text.do_i2c_bus_speed
                0xe9f8f1a4       0x80 common/libcommon.o
 .text.do_interrupts
                0xe9f8f224       0x50 common/libcommon.o
 .text.evalexp  0xe9f8f274       0x94 common/libcommon.o
 .text.binary_test
                0xe9f8f308      0x1f0 common/libcommon.o
 .text.do_itest
                0xe9f8f4f8       0xa0 common/libcommon.o
 .text.bin_data_init
                0xe9f8f598       0x40 common/libcommon.o
 .text.k_data_save
                0xe9f8f5d8       0x54 common/libcommon.o
 .text.k_data_restore
                0xe9f8f62c       0x54 common/libcommon.o
 .text.load_serial_ymodem
                0xe9f8f680      0x120 common/libcommon.o
 .text.getcxmodem
                0xe9f8f7a0       0x38 common/libcommon.o
 .text.load_serial
                0xe9f8f7d8      0x208 common/libcommon.o
 .text.do_load_serial
                0xe9f8f9e0      0x198 common/libcommon.o
 .text.bin_data_char
                0xe9f8fb78       0x48 common/libcommon.o
 .text.s1_sendpacket.constprop.1
                0xe9f8fbc0       0x60 common/libcommon.o
 .text.chk1.constprop.2
                0xe9f8fc20       0x4c common/libcommon.o
 .text.do_load_serial_bin
                0xe9f8fc6c      0x714 common/libcommon.o
 .text.extract_range
                0xe9f90380       0xf4 common/libcommon.o
 .text.do_mdio  0xe9f90474      0x3c0 common/libcommon.o
 .text.do_mem_base
                0xe9f90834       0x54 common/libcommon.o
 .text.do_mem_mtest
                0xe9f90888      0x578 common/libcommon.o
 .text.do_mem_loop
                0xe9f90e00      0x10c common/libcommon.o
 .text.do_mem_cmp
                0xe9f90f0c      0x144 common/libcommon.o
 .text.do_mem_mw
                0xe9f91050       0xe0 common/libcommon.o
 .text.do_mem_crc
                0xe9f91130       0xb8 common/libcommon.o
 .text.do_mem_cp
                0xe9f911e8      0x138 common/libcommon.o
 .text.do_mem_md
                0xe9f91320       0xe8 common/libcommon.o
 .text.mod_mem.isra.0
                0xe9f91408      0x190 common/libcommon.o
 .text.do_mem_nm
                0xe9f91598        0x8 common/libcommon.o
 .text.do_mem_mm
                0xe9f915a0        0x8 common/libcommon.o
 .text.do_mii   0xe9f915a8      0x74c common/libcommon.o
 .text.do_sleep
                0xe9f91cf4       0x80 common/libcommon.o
 .text.do_mmcops
                0xe9f91d74      0x430 common/libcommon.o
 .text.do_mmcinfo
                0xe9f921a4      0x154 common/libcommon.o
 .text.cpu_cmd  0xe9f922f8      0x118 common/libcommon.o
 .text.netboot_common
                0xe9f92410      0x26c common/libcommon.o
 .text.do_nfs   0xe9f9267c        0xc common/libcommon.o
 .text.do_dhcp  0xe9f92688        0xc common/libcommon.o
 .text.do_bootp
                0xe9f92694        0xc common/libcommon.o
 .text.do_tftpb
                0xe9f926a0        0xc common/libcommon.o
                0xe9f926a0                do_tftpb
 .text.do_ping  0xe9f926ac       0x7c common/libcommon.o
 .text.do_env_delete
                0xe9f92728       0xc0 common/libcommon.o
 .text.do_env_grep
                0xe9f927e8      0x114 common/libcommon.o
 .text.env_print
                0xe9f928fc       0xcc common/libcommon.o
 .text.do_env_print
                0xe9f929c8       0xd4 common/libcommon.o
 .text.do_env   0xe9f92a9c       0x78 common/libcommon.o
 .text.do_env_import
                0xe9f92b14      0x234 common/libcommon.o
 .text.do_env_default
                0xe9f92d48       0xa0 common/libcommon.o
 .text.do_env_save
                0xe9f92de8       0x40 common/libcommon.o
 .text._do_env_set.isra.0
                0xe9f92e28      0x1dc common/libcommon.o
 .text.do_env_set
                0xe9f93004       0x1c common/libcommon.o
 .text.get_env_id
                0xe9f93020       0x2c common/libcommon.o
                0xe9f93020                get_env_id
 .text.setenv   0xe9f9304c       0x5c common/libcommon.o
                0xe9f9304c                setenv
 .text.do_env_export
                0xe9f930a8      0x240 common/libcommon.o
 .text.envmatch
                0xe9f932e8       0x78 common/libcommon.o
                0xe9f932e8                envmatch
 .text.getenv_f
                0xe9f93360       0xdc common/libcommon.o
                0xe9f93360                getenv_f
 .text.getenv   0xe9f9343c       0xa0 common/libcommon.o
                0xe9f9343c                getenv
 .text.do_env_edit
                0xe9f934dc       0x70 common/libcommon.o
 .text.getenv_ulong
                0xe9f9354c       0x40 common/libcommon.o
                0xe9f9354c                getenv_ulong
 .text.pci_cfg_write
                0xe9f9358c       0x54 common/libcommon.o
 .text.pci_cfg_modify.isra.0
                0xe9f935e0      0x138 common/libcommon.o
 .text.pci_header_show_brief
                0xe9f93718       0x88 common/libcommon.o
                0xe9f93718                pci_header_show_brief
 .text.pci_header_show
                0xe9f937a0      0x814 common/libcommon.o
                0xe9f937a0                pci_header_show
 .text.pciinfo  0xe9f93fb4      0x13c common/libcommon.o
                0xe9f93fb4                pciinfo
 .text.do_pci   0xe9f940f0      0x3bc common/libcommon.o
 .text.do_reginfo
                0xe9f944ac       0x24 common/libcommon.o
 .text.get_arg.part.0
                0xe9f944d0       0x58 common/libcommon.o
 .text.do_setexpr
                0xe9f94528      0x1cc common/libcommon.o
 .text.source   0xe9f946f4      0x1a8 common/libcommon.o
                0xe9f946f4                source
 .text.do_source
                0xe9f9489c       0x8c common/libcommon.o
                0xe9f9489c                do_source
 .text.do_false
                0xe9f94928        0x8 common/libcommon.o
 .text.do_true  0xe9f94930        0x8 common/libcommon.o
 .text.do_test  0xe9f94938      0x514 common/libcommon.o
 .text.do_version
                0xe9f94e4c       0x40 common/libcommon.o
 .text.do_imgextract
                0xe9f94e8c      0x360 common/libcommon.o
 .text.find_cmd_tbl
                0xe9f951ec       0xb0 common/libcommon.o
                0xe9f951ec                find_cmd_tbl
 .text.find_cmd
                0xe9f9529c       0x40 common/libcommon.o
                0xe9f9529c                find_cmd
 .text.cmd_usage
                0xe9f952dc       0x68 common/libcommon.o
                0xe9f952dc                cmd_usage
 .text._do_help
                0xe9f95344      0x1b0 common/libcommon.o
                0xe9f95344                _do_help
 .text.var_complete
                0xe9f954f4       0x78 common/libcommon.o
                0xe9f954f4                var_complete
 .text.cmd_auto_complete
                0xe9f9556c      0x4c0 common/libcommon.o
                0xe9f9556c                cmd_auto_complete
 .text.cmd_get_data_size
                0xe9f95a2c       0x6c common/libcommon.o
                0xe9f95a2c                cmd_get_data_size
 .text.cmd_process
                0xe9f95a98       0xc8 common/libcommon.o
                0xe9f95a98                cmd_process
 .text.console_setfile
                0xe9f95b60       0xbc common/libcommon.o
 .text.fgetc    0xe9f95c1c       0x48 common/libcommon.o
                0xe9f95c1c                fgetc
 .text.ftstc    0xe9f95c64       0x48 common/libcommon.o
                0xe9f95c64                ftstc
 .text.fputc    0xe9f95cac       0x44 common/libcommon.o
                0xe9f95cac                fputc
 .text.fputs    0xe9f95cf0       0x44 common/libcommon.o
                0xe9f95cf0                fputs
 .text.getc     0xe9f95d34       0x44 common/libcommon.o
                0xe9f95d34                getc
 .text.tstc     0xe9f95d78       0x44 common/libcommon.o
                0xe9f95d78                tstc
 .text.putc     0xe9f95dbc       0x48 common/libcommon.o
                0xe9f95dbc                putc
 .text.puts     0xe9f95e04       0x48 common/libcommon.o
                0xe9f95e04                puts
 .text.printf   0xe9f95e4c       0x84 common/libcommon.o
                0xe9f95e4c                printf
 .text.vprintf  0xe9f95ed0       0x50 common/libcommon.o
                0xe9f95ed0                vprintf
 .text.ctrlc    0xe9f95f20       0x6c common/libcommon.o
                0xe9f95f20                ctrlc
 .text.disable_ctrlc
                0xe9f95f8c       0x34 common/libcommon.o
                0xe9f95f8c                disable_ctrlc
 .text.had_ctrlc
                0xe9f95fc0       0x2c common/libcommon.o
                0xe9f95fc0                had_ctrlc
 .text.clear_ctrlc
                0xe9f95fec       0x30 common/libcommon.o
                0xe9f95fec                clear_ctrlc
 .text.search_device
                0xe9f9601c       0x40 common/libcommon.o
                0xe9f9601c                search_device
 .text.console_assign
                0xe9f9605c       0x64 common/libcommon.o
                0xe9f9605c                console_assign
 .text.on_console
                0xe9f960c0       0xd0 common/libcommon.o
 .text.console_init_f
                0xe9f96190       0x10 common/libcommon.o
                0xe9f96190                console_init_f
 .text.stdio_print_current_devices
                0xe9f961a0       0xb0 common/libcommon.o
                0xe9f961a0                stdio_print_current_devices
 .text.console_init_r
                0xe9f96250       0xf0 common/libcommon.o
                0xe9f96250                console_init_r
 .text.sbrk     0xe9f96340       0x78 common/libcommon.o
                0xe9f96340                sbrk
 .text.mem_malloc_init
                0xe9f963b8       0x48 common/libcommon.o
                0xe9f963b8                mem_malloc_init
 .text.malloc_trim
                0xe9f96400       0xd4 common/libcommon.o
                0xe9f96400                malloc_trim
 .text.free     0xe9f964d4      0x25c common/libcommon.o
                0xe9f964d4                free
 .text.malloc   0xe9f96730      0x630 common/libcommon.o
                0xe9f96730                malloc
 .text.calloc   0xe9f96d60       0xec common/libcommon.o
                0xe9f96d60                calloc
 .text.memalign
                0xe9f96e4c      0x12c common/libcommon.o
                0xe9f96e4c                memalign
 .text.realloc  0xe9f96f78      0x44c common/libcommon.o
                0xe9f96f78                realloc
 .text.reverse_strstr.part.0
                0xe9f973c4       0x70 common/libcommon.o
 .text.env_attr_walk
                0xe9f97434      0x120 common/libcommon.o
                0xe9f97434                env_attr_walk
 .text.env_attr_lookup
                0xe9f97554      0x160 common/libcommon.o
                0xe9f97554                env_attr_lookup
 .text.clear_callback
                0xe9f976b4       0x10 common/libcommon.o
 .text.on_callbacks
                0xe9f976c4       0x50 common/libcommon.o
 .text.find_env_callback
                0xe9f97714       0x74 common/libcommon.o
                0xe9f97714                find_env_callback
 .text.set_callback
                0xe9f97788       0xac common/libcommon.o
 .text.env_callback_init
                0xe9f97834       0xac common/libcommon.o
                0xe9f97834                env_callback_init
 .text.__env_get_char_spec
                0xe9f978e0        0xc common/libcommon.o
                0xe9f978e0                env_get_char_spec
 .text.env_get_addr
                0xe9f978ec       0x40 common/libcommon.o
                0xe9f978ec                env_get_addr
 .text.env_get_char_memory
                0xe9f9792c       0x24 common/libcommon.o
                0xe9f9792c                env_get_char_memory
 .text.env_get_char
                0xe9f97950       0x50 common/libcommon.o
                0xe9f97950                env_get_char
 .text.getenv_yesno
                0xe9f979a0       0x64 common/libcommon.o
                0xe9f979a0                getenv_yesno
 .text.getenv_default
                0xe9f97a04       0x40 common/libcommon.o
                0xe9f97a04                getenv_default
 .text.set_default_env
                0xe9f97a44       0xa8 common/libcommon.o
                0xe9f97a44                set_default_env
 .text.set_default_vars
                0xe9f97aec       0x40 common/libcommon.o
                0xe9f97aec                set_default_vars
 .text.env_import
                0xe9f97b2c       0xc4 common/libcommon.o
                0xe9f97b2c                env_import
 .text.env_relocate
                0xe9f97bf0       0x44 common/libcommon.o
                0xe9f97bf0                env_relocate
 .text.env_complete
                0xe9f97c34       0xec common/libcommon.o
                0xe9f97c34                env_complete
 .text.skip_num
                0xe9f97d20       0x94 common/libcommon.o
 .text.clear_flags
                0xe9f97db4       0x10 common/libcommon.o
 .text.on_flags
                0xe9f97dc4       0x50 common/libcommon.o
 .text.env_flags_parse_vartype
                0xe9f97e14       0x64 common/libcommon.o
                0xe9f97e14                env_flags_parse_vartype
 .text.env_flags_parse_varaccess
                0xe9f97e78       0x64 common/libcommon.o
                0xe9f97e78                env_flags_parse_varaccess
 .text.set_flags
                0xe9f97edc       0xc4 common/libcommon.o
 .text.env_flags_init
                0xe9f97fa0       0xb0 common/libcommon.o
                0xe9f97fa0                env_flags_init
 .text.env_flags_validate
                0xe9f98050      0x318 common/libcommon.o
                0xe9f98050                env_flags_validate
 .text.env_init
                0xe9f98368       0x70 common/libcommon.o
                0xe9f98368                env_init
 .text.saveenv  0xe9f983d8      0x180 common/libcommon.o
                0xe9f983d8                saveenv
 .text.env_relocate_spec
                0xe9f98558       0x28 common/libcommon.o
                0xe9f98558                env_relocate_spec
 .text.dummy    0xe9f98580        0x4 common/libcommon.o
 .text.get_version
                0xe9f98584        0x8 common/libcommon.o
                0xe9f98584                get_version
 .text.jumptable_init
                0xe9f9858c      0x16c common/libcommon.o
                0xe9f9858c                jumptable_init
 .text.of_bus_default_map
                0xe9f986f8       0xe4 common/libcommon.o
 .text.of_bus_default_count_cells
                0xe9f987dc       0x8c common/libcommon.o
 .text.of_bus_default_translate
                0xe9f98868       0x8c common/libcommon.o
 .text.fdt_getprop_u32_default
                0xe9f988f4       0x50 common/libcommon.o
                0xe9f988f4                fdt_getprop_u32_default
 .text.fdt_find_and_setprop
                0xe9f98944       0x84 common/libcommon.o
                0xe9f98944                fdt_find_and_setprop
 .text.fdt_initrd
                0xe9f989c8      0x1a8 common/libcommon.o
                0xe9f989c8                fdt_initrd
 .text.fdt_chosen
                0xe9f98b70      0x240 common/libcommon.o
                0xe9f98b70                fdt_chosen
 .text.do_fixup_by_path
                0xe9f98db0       0x4c common/libcommon.o
                0xe9f98db0                do_fixup_by_path
 .text.do_fixup_by_prop
                0xe9f98dfc       0xc4 common/libcommon.o
                0xe9f98dfc                do_fixup_by_prop
 .text.do_fixup_by_prop_u32
                0xe9f98ec0       0x34 common/libcommon.o
                0xe9f98ec0                do_fixup_by_prop_u32
 .text.do_fixup_by_compat
                0xe9f98ef4       0xac common/libcommon.o
                0xe9f98ef4                do_fixup_by_compat
 .text.do_fixup_by_compat_u32
                0xe9f98fa0       0x34 common/libcommon.o
                0xe9f98fa0                do_fixup_by_compat_u32
 .text.fdt_fixup_memory_banks
                0xe9f98fd4      0x270 common/libcommon.o
                0xe9f98fd4                fdt_fixup_memory_banks
 .text.fdt_fixup_memory
                0xe9f99244       0x3c common/libcommon.o
                0xe9f99244                fdt_fixup_memory
 .text.fdt_fixup_ethernet
                0xe9f99280      0x148 common/libcommon.o
                0xe9f99280                fdt_fixup_ethernet
 .text.fdt_resize
                0xe9f993c8       0xc8 common/libcommon.o
                0xe9f993c8                fdt_resize
 .text.fdt_pci_dma_ranges
                0xe9f99490      0x140 common/libcommon.o
                0xe9f99490                fdt_pci_dma_ranges
 .text.fdt_increase_size
                0xe9f995d0       0x2c common/libcommon.o
                0xe9f995d0                fdt_increase_size
 .text.fdt_del_node_and_alias
                0xe9f995fc       0x58 common/libcommon.o
                0xe9f995fc                fdt_del_node_and_alias
 .text.__of_translate_address
                0xe9f99654      0x290 common/libcommon.o
                0xe9f99654                __of_translate_address
 .text.fdt_translate_address
                0xe9f998e4       0x28 common/libcommon.o
                0xe9f998e4                fdt_translate_address
 .text.fdt_node_offset_by_compat_reg
                0xe9f9990c       0xa0 common/libcommon.o
                0xe9f9990c                fdt_node_offset_by_compat_reg
 .text.fdt_alloc_phandle
                0xe9f999ac       0x70 common/libcommon.o
                0xe9f999ac                fdt_alloc_phandle
 .text.fdt_set_phandle
                0xe9f99a1c       0x68 common/libcommon.o
                0xe9f99a1c                fdt_set_phandle
 .text.fdt_create_phandle
                0xe9f99a84       0x7c common/libcommon.o
                0xe9f99a84                fdt_create_phandle
 .text.fdt_set_node_status
                0xe9f99b00       0xd0 common/libcommon.o
                0xe9f99b00                fdt_set_node_status
 .text.fdt_verify_alias_address
                0xe9f99bd0       0xdc common/libcommon.o
                0xe9f99bd0                fdt_verify_alias_address
 .text.fdt_get_base_address
                0xe9f99cac       0x98 common/libcommon.o
                0xe9f99cac                fdt_get_base_address
 .text.flash_protect
                0xe9f99d44       0xd0 common/libcommon.o
                0xe9f99d44                flash_protect
 .text.addr2info
                0xe9f99e14       0x68 common/libcommon.o
                0xe9f99e14                addr2info
 .text.flash_write
                0xe9f99e7c      0x150 common/libcommon.o
                0xe9f99e7c                flash_write
 .text.flash_perror
                0xe9f99fcc       0xec common/libcommon.o
                0xe9f99fcc                flash_perror
 .text.b_reset  0xe9f9a0b8       0x20 common/libcommon.o
 .text.static_get
                0xe9f9a0d8       0x24 common/libcommon.o
 .text.static_peek
                0xe9f9a0fc        0xc common/libcommon.o
 .text.file_peek
                0xe9f9a108        0xc common/libcommon.o
 .text.mapset   0xe9f9a114       0x40 common/libcommon.o
 .text.syntax_err
                0xe9f9a154       0x28 common/libcommon.o
 .text.do_showvar
                0xe9f9a17c      0x110 common/libcommon.o
 .text.free_pipe_list
                0xe9f9a28c       0xf0 common/libcommon.o
 .text.b_addchr
                0xe9f9a37c       0x90 common/libcommon.o
 .text.b_addqchr
                0xe9f9a40c       0x70 common/libcommon.o
 .text.is_assignment.part.0
                0xe9f9a47c       0x4c common/libcommon.o
 .text.xmalloc  0xe9f9a4c8       0x38 common/libcommon.o
 .text.new_pipe
                0xe9f9a500       0x3c common/libcommon.o
 .text.file_get
                0xe9f9a53c      0x1cc common/libcommon.o
 .text.xrealloc
                0xe9f9a708       0x38 common/libcommon.o
 .text.done_command
                0xe9f9a740       0x94 common/libcommon.o
 .text.done_pipe
                0xe9f9a7d4       0x58 common/libcommon.o
 .text.done_word
                0xe9f9a82c      0x300 common/libcommon.o
 .text.get_local_var
                0xe9f9ab2c       0xa4 common/libcommon.o
                0xe9f9ab2c                get_local_var
 .text.set_local_var
                0xe9f9abd0      0x1b8 common/libcommon.o
                0xe9f9abd0                set_local_var
 .text.insert_var_value_sub
                0xe9f9ad88      0x2b0 common/libcommon.o
 .text.parse_string_outer
                0xe9f9b038       0xec common/libcommon.o
                0xe9f9b038                parse_string_outer
 .text.run_list_real
                0xe9f9b124      0x7fc common/libcommon.o
 .text.parse_stream_outer
                0xe9f9b920      0x708 common/libcommon.o
 .text.parse_file_outer
                0xe9f9c028       0x50 common/libcommon.o
                0xe9f9c028                parse_file_outer
 .text.u_boot_hush_start
                0xe9f9c078       0x60 common/libcommon.o
                0xe9f9c078                u_boot_hush_start
 .text.hwconfig_parse
                0xe9f9c0d8      0x120 common/libcommon.o
 .text.__hwconfig
                0xe9f9c1f8       0xf4 common/libcommon.o
 .text.hwconfig_arg_f
                0xe9f9c2ec        0x4 common/libcommon.o
                0xe9f9c2ec                hwconfig_arg_f
 .text.hwconfig_arg_cmp_f
                0xe9f9c2f0       0x60 common/libcommon.o
                0xe9f9c2f0                hwconfig_arg_cmp_f
 .text.genimg_print_time
                0xe9f9c350       0x48 common/libcommon.o
 .text.fdt_error
                0xe9f9c398       0x3c common/libcommon.o
 .text.on_loadaddr
                0xe9f9c3d4       0x4c common/libcommon.o
 .text.image_check_hcrc
                0xe9f9c420       0x58 common/libcommon.o
                0xe9f9c420                image_check_hcrc
 .text.image_check_dcrc
                0xe9f9c478       0x44 common/libcommon.o
                0xe9f9c478                image_check_dcrc
 .text.image_multi_count
                0xe9f9c4bc       0x20 common/libcommon.o
                0xe9f9c4bc                image_multi_count
 .text.image_multi_getimg
                0xe9f9c4dc       0x8c common/libcommon.o
                0xe9f9c4dc                image_multi_getimg
 .text.getenv_bootm_low
                0xe9f9c568       0x48 common/libcommon.o
                0xe9f9c568                getenv_bootm_low
 .text.getenv_bootm_size
                0xe9f9c5b0       0x80 common/libcommon.o
                0xe9f9c5b0                getenv_bootm_size
 .text.getenv_bootm_mapsize
                0xe9f9c630       0x54 common/libcommon.o
                0xe9f9c630                getenv_bootm_mapsize
 .text.memmove_wd
                0xe9f9c684       0x28 common/libcommon.o
                0xe9f9c684                memmove_wd
 .text.genimg_print_size
                0xe9f9c6ac       0x40 common/libcommon.o
                0xe9f9c6ac                genimg_print_size
 .text.get_table_entry_name
                0xe9f9c6ec       0x30 common/libcommon.o
                0xe9f9c6ec                get_table_entry_name
 .text.genimg_get_os_name
                0xe9f9c71c       0x30 common/libcommon.o
                0xe9f9c71c                genimg_get_os_name
 .text.genimg_get_arch_name
                0xe9f9c74c       0x30 common/libcommon.o
                0xe9f9c74c                genimg_get_arch_name
 .text.genimg_get_type_name
                0xe9f9c77c       0x30 common/libcommon.o
                0xe9f9c77c                genimg_get_type_name
 .text.genimg_get_comp_name
                0xe9f9c7ac       0x30 common/libcommon.o
                0xe9f9c7ac                genimg_get_comp_name
 .text.image_print_contents
                0xe9f9c7dc      0x170 common/libcommon.o
                0xe9f9c7dc                image_print_contents
 .text.get_table_entry_id
                0xe9f9c94c       0x5c common/libcommon.o
                0xe9f9c94c                get_table_entry_id
 .text.genimg_get_os_id
                0xe9f9c9a8       0x30 common/libcommon.o
                0xe9f9c9a8                genimg_get_os_id
 .text.genimg_get_arch_id
                0xe9f9c9d8       0x30 common/libcommon.o
                0xe9f9c9d8                genimg_get_arch_id
 .text.genimg_get_type_id
                0xe9f9ca08       0x30 common/libcommon.o
                0xe9f9ca08                genimg_get_type_id
 .text.genimg_get_comp_id
                0xe9f9ca38       0x30 common/libcommon.o
                0xe9f9ca38                genimg_get_comp_id
 .text.genimg_get_format
                0xe9f9ca68       0x44 common/libcommon.o
                0xe9f9ca68                genimg_get_format
 .text.genimg_get_image
                0xe9f9caac        0x4 common/libcommon.o
                0xe9f9caac                genimg_get_image
 .text.genimg_has_config
                0xe9f9cab0       0x14 common/libcommon.o
                0xe9f9cab0                genimg_has_config
 .text.boot_ramdisk_high
                0xe9f9cac4      0x144 common/libcommon.o
                0xe9f9cac4                boot_ramdisk_high
 .text.boot_fdt_add_mem_rsv_regions
                0xe9f9cc08       0xa8 common/libcommon.o
                0xe9f9cc08                boot_fdt_add_mem_rsv_regions
 .text.boot_relocate_fdt
                0xe9f9ccb0      0x1c0 common/libcommon.o
                0xe9f9ccb0                boot_relocate_fdt
 .text.boot_get_cmdline
                0xe9f9ce70       0xa8 common/libcommon.o
                0xe9f9ce70                boot_get_cmdline
 .text.boot_get_kbd
                0xe9f9cf18       0x84 common/libcommon.o
                0xe9f9cf18                boot_get_kbd
 .text.fit_parse_conf
                0xe9f9cf9c       0x70 common/libcommon.o
                0xe9f9cf9c                fit_parse_conf
 .text.fit_parse_subimage
                0xe9f9d00c       0x70 common/libcommon.o
                0xe9f9d00c                fit_parse_subimage
 .text.fit_get_desc
                0xe9f9d07c       0x48 common/libcommon.o
                0xe9f9d07c                fit_get_desc
 .text.fit_get_timestamp
                0xe9f9d0c4       0x5c common/libcommon.o
                0xe9f9d0c4                fit_get_timestamp
 .text.fit_image_get_node
                0xe9f9d120       0x4c common/libcommon.o
                0xe9f9d120                fit_image_get_node
 .text.__fit_conf_get_prop_node
                0xe9f9d16c       0x40 common/libcommon.o
 .text.fit_image_get_os
                0xe9f9d1ac       0x54 common/libcommon.o
                0xe9f9d1ac                fit_image_get_os
 .text.fit_image_get_arch
                0xe9f9d200       0x54 common/libcommon.o
                0xe9f9d200                fit_image_get_arch
 .text.fit_image_get_type
                0xe9f9d254       0x54 common/libcommon.o
                0xe9f9d254                fit_image_get_type
 .text.fit_image_get_comp
                0xe9f9d2a8       0x54 common/libcommon.o
                0xe9f9d2a8                fit_image_get_comp
 .text.fit_image_get_load
                0xe9f9d2fc       0x4c common/libcommon.o
                0xe9f9d2fc                fit_image_get_load
 .text.fit_image_get_entry
                0xe9f9d348       0x4c common/libcommon.o
                0xe9f9d348                fit_image_get_entry
 .text.fit_image_get_data
                0xe9f9d394       0x58 common/libcommon.o
                0xe9f9d394                fit_image_get_data
 .text.fit_image_hash_get_algo
                0xe9f9d3ec       0x48 common/libcommon.o
                0xe9f9d3ec                fit_image_hash_get_algo
 .text.fit_image_hash_get_value
                0xe9f9d434       0x58 common/libcommon.o
                0xe9f9d434                fit_image_hash_get_value
 .text.fit_image_print_hash
                0xe9f9d48c       0xf8 common/libcommon.o
                0xe9f9d48c                fit_image_print_hash
 .text.fit_image_print
                0xe9f9d584      0x2ac common/libcommon.o
                0xe9f9d584                fit_image_print
 .text.fit_image_hash_get_ignore
                0xe9f9d830       0x58 common/libcommon.o
                0xe9f9d830                fit_image_hash_get_ignore
 .text.fit_image_check_hashes
                0xe9f9d888      0x288 common/libcommon.o
                0xe9f9d888                fit_image_check_hashes
 .text.fit_all_image_check_hashes
                0xe9f9db10      0x10c common/libcommon.o
                0xe9f9db10                fit_all_image_check_hashes
 .text.fit_image_check_os
                0xe9f9dc1c       0x48 common/libcommon.o
                0xe9f9dc1c                fit_image_check_os
 .text.fit_image_check_arch
                0xe9f9dc64       0x48 common/libcommon.o
                0xe9f9dc64                fit_image_check_arch
 .text.fit_image_check_type
                0xe9f9dcac       0x48 common/libcommon.o
                0xe9f9dcac                fit_image_check_type
 .text.fit_image_check_comp
                0xe9f9dcf4       0x48 common/libcommon.o
                0xe9f9dcf4                fit_image_check_comp
 .text.fit_check_format
                0xe9f9dd3c       0x74 common/libcommon.o
                0xe9f9dd3c                fit_check_format
 .text.fit_conf_get_node
                0xe9f9ddb0       0x7c common/libcommon.o
                0xe9f9ddb0                fit_conf_get_node
 .text.fit_conf_get_kernel_node
                0xe9f9de2c       0x28 common/libcommon.o
                0xe9f9de2c                fit_conf_get_kernel_node
 .text.fit_conf_get_ramdisk_node
                0xe9f9de54       0x28 common/libcommon.o
                0xe9f9de54                fit_conf_get_ramdisk_node
 .text.boot_get_ramdisk
                0xe9f9de7c      0x52c common/libcommon.o
                0xe9f9de7c                boot_get_ramdisk
 .text.fit_conf_get_fdt_node
                0xe9f9e3a8       0x28 common/libcommon.o
                0xe9f9e3a8                fit_conf_get_fdt_node
 .text.boot_get_fdt
                0xe9f9e3d0      0x4f0 common/libcommon.o
                0xe9f9e3d0                boot_get_fdt
 .text.fit_conf_print
                0xe9f9e8c0       0xf8 common/libcommon.o
                0xe9f9e8c0                fit_conf_print
 .text.fit_print_contents
                0xe9f9e9b8      0x23c common/libcommon.o
                0xe9f9e9b8                fit_print_contents
 .text.delete_char.part.1
                0xe9f9ebf4       0xec common/libcommon.o
 .text.cread_add_char
                0xe9f9ece0       0xf8 common/libcommon.o
 .text.__show_boot_progress
                0xe9f9edd8        0x4 common/libcommon.o
                0xe9f9edd8                __show_boot_progress
                0xe9f9edd8                show_boot_progress
 .text.readline_into_buffer
                0xe9f9eddc      0x9e0 common/libcommon.o
                0xe9f9eddc                readline_into_buffer
 .text.readline
                0xe9f9f7bc       0x34 common/libcommon.o
                0xe9f9f7bc                readline
 .text.run_command
                0xe9f9f7f0       0x24 common/libcommon.o
                0xe9f9f7f0                run_command
 .text.run_command_list
                0xe9f9f814       0x70 common/libcommon.o
                0xe9f9f814                run_command_list
 .text.main_loop
                0xe9f9f884      0x260 common/libcommon.o
                0xe9f9f884                main_loop
 .text.do_run   0xe9f9fae4       0x80 common/libcommon.o
                0xe9f9fae4                do_run
 .text.miiphy_get_dev_by_name
                0xe9f9fb64       0x6c common/libcommon.o
                0xe9f9fb64                miiphy_get_dev_by_name
 .text.miiphy_init
                0xe9f9fbd0       0x3c common/libcommon.o
                0xe9f9fbd0                miiphy_init
 .text.mdio_alloc
                0xe9f9fc0c       0x44 common/libcommon.o
                0xe9f9fc0c                mdio_alloc
 .text.mdio_register
                0xe9f9fc50       0x9c common/libcommon.o
                0xe9f9fc50                mdio_register
 .text.mdio_list_devices
                0xe9f9fcec       0xac common/libcommon.o
                0xe9f9fcec                mdio_list_devices
 .text.miiphy_set_current_dev
                0xe9f9fd98       0x50 common/libcommon.o
                0xe9f9fd98                miiphy_set_current_dev
 .text.miiphy_get_active_dev
                0xe9f9fde8       0x70 common/libcommon.o
 .text.mdio_get_current_dev
                0xe9f9fe58       0x2c common/libcommon.o
                0xe9f9fe58                mdio_get_current_dev
 .text.mdio_phydev_for_ethname
                0xe9f9fe84       0xa4 common/libcommon.o
                0xe9f9fe84                mdio_phydev_for_ethname
 .text.miiphy_get_current_dev
                0xe9f9ff28       0x3c common/libcommon.o
                0xe9f9ff28                miiphy_get_current_dev
 .text.miiphy_read
                0xe9f9ff64       0x60 common/libcommon.o
                0xe9f9ff64                miiphy_read
 .text.miiphy_write
                0xe9f9ffc4       0x58 common/libcommon.o
                0xe9f9ffc4                miiphy_write
 .text.miiphy_listdev
                0xe9fa001c       0x74 common/libcommon.o
                0xe9fa001c                miiphy_listdev
 .text.miiphy_info
                0xe9fa0090       0x9c common/libcommon.o
                0xe9fa0090                miiphy_info
 .text.miiphy_is_1000base_x
                0xe9fa012c       0x58 common/libcommon.o
                0xe9fa012c                miiphy_is_1000base_x
 .text.miiphy_duplex
                0xe9fa0184      0x134 common/libcommon.o
                0xe9fa0184                miiphy_duplex
 .text.miiphy_speed
                0xe9fa02b8       0xfc common/libcommon.o
                0xe9fa02b8                miiphy_speed
 .text.hex1_bin
                0xe9fa03b4       0x44 common/libcommon.o
 .text.hex2_bin
                0xe9fa03f8       0x4c common/libcommon.o
 .text.srec_decode
                0xe9fa0444      0x258 common/libcommon.o
                0xe9fa0444                srec_decode
 .text.stdio_get_list
                0xe9fa069c       0x2c common/libcommon.o
                0xe9fa069c                stdio_get_list
 .text.stdio_get_by_name
                0xe9fa06c8       0x64 common/libcommon.o
                0xe9fa06c8                stdio_get_by_name
 .text.stdio_clone
                0xe9fa072c       0x48 common/libcommon.o
                0xe9fa072c                stdio_clone
 .text.stdio_register
                0xe9fa0774       0x58 common/libcommon.o
                0xe9fa0774                stdio_register
 .text.stdio_init
                0xe9fa07cc       0x98 common/libcommon.o
                0xe9fa07cc                stdio_init
 .text.CYGACC_COMM_IF_GETC_TIMEOUT.isra.1
                0xe9fa0864       0x74 common/libcommon.o
 .text.xyzModem_flush
                0xe9fa08d8       0x2c common/libcommon.o
 .text.xyzModem_get_hdr
                0xe9fa0904      0x278 common/libcommon.o
 .text.xyzModem_stream_open
                0xe9fa0b7c      0x278 common/libcommon.o
                0xe9fa0b7c                xyzModem_stream_open
 .text.xyzModem_stream_read
                0xe9fa0df4      0x26c common/libcommon.o
                0xe9fa0df4                xyzModem_stream_read
 .text.xyzModem_stream_close
                0xe9fa1060       0x50 common/libcommon.o
                0xe9fa1060                xyzModem_stream_close
 .text.xyzModem_stream_terminate
                0xe9fa10b0       0xac common/libcommon.o
                0xe9fa10b0                xyzModem_stream_terminate
 .text.xyzModem_error
                0xe9fa115c       0x88 common/libcommon.o
                0xe9fa115c                xyzModem_error
 .text.get_dev  0xe9fa11e4       0x88 disk/libdisk.o
                0xe9fa11e4                get_dev
 .text.dev_print
                0xe9fa126c      0x198 disk/libdisk.o
                0xe9fa126c                dev_print
 .text.init_part
                0xe9fa1404       0x34 disk/libdisk.o
                0xe9fa1404                init_part
 .text.print_part
                0xe9fa1438       0xc4 disk/libdisk.o
                0xe9fa1438                print_part
 .text.get_partition_info
                0xe9fa14fc       0x40 disk/libdisk.o
                0xe9fa14fc                get_partition_info
 .text.get_device
                0xe9fa153c       0x94 disk/libdisk.o
                0xe9fa153c                get_device
 .text.get_device_and_partition
                0xe9fa15d0      0x2d0 disk/libdisk.o
                0xe9fa15d0                get_device_and_partition
 .text.test_block_type
                0xe9fa18a0       0x78 disk/libdisk.o
 .text.print_partition_extended
                0xe9fa1918      0x288 disk/libdisk.o
 .text.get_partition_info_extended.constprop.2
                0xe9fa1ba0      0x2b4 disk/libdisk.o
 .text.test_part_dos
                0xe9fa1e54       0x84 disk/libdisk.o
                0xe9fa1e54                test_part_dos
 .text.print_part_dos
                0xe9fa1ed8       0x4c disk/libdisk.o
                0xe9fa1ed8                print_part_dos
 .text.get_partition_info_dos
                0xe9fa1f24       0x18 disk/libdisk.o
                0xe9fa1f24                get_partition_info_dos
 .text.set_i2c_bus_speed
                0xe9fa1f3c      0x118 drivers/i2c/libi2c.o
 .text.i2c_wait4bus
                0xe9fa2054       0x9c drivers/i2c/libi2c.o
 .text.i2c_init
                0xe9fa20f0       0xac drivers/i2c/libi2c.o
                0xe9fa20f0                i2c_init
 .text.i2c_read
                0xe9fa219c      0x44c drivers/i2c/libi2c.o
                0xe9fa219c                i2c_read
 .text.i2c_write
                0xe9fa25e8      0x2fc drivers/i2c/libi2c.o
                0xe9fa25e8                i2c_write
 .text.i2c_probe
                0xe9fa28e4       0x70 drivers/i2c/libi2c.o
                0xe9fa28e4                i2c_probe
 .text.i2c_set_bus_num
                0xe9fa2954       0x40 drivers/i2c/libi2c.o
                0xe9fa2954                i2c_set_bus_num
 .text.i2c_set_bus_speed
                0xe9fa2994       0x88 drivers/i2c/libi2c.o
                0xe9fa2994                i2c_set_bus_speed
 .text.i2c_get_bus_num
                0xe9fa2a1c       0x2c drivers/i2c/libi2c.o
                0xe9fa2a1c                i2c_get_bus_num
 .text.i2c_get_bus_speed
                0xe9fa2a48       0x38 drivers/i2c/libi2c.o
                0xe9fa2a48                i2c_get_bus_speed
 .text.esdhc_getcd
                0xe9fa2a80       0x5c drivers/mmc/libmmc.o
 .text.esdhc_set_ios
                0xe9fa2adc      0x16c drivers/mmc/libmmc.o
 .text.esdhc_init
                0xe9fa2c48       0xe4 drivers/mmc/libmmc.o
 .text.esdhc_send_cmd
                0xe9fa2d2c      0x4c8 drivers/mmc/libmmc.o
 .text.fsl_esdhc_initialize
                0xe9fa31f4      0x18c drivers/mmc/libmmc.o
                0xe9fa31f4                fsl_esdhc_initialize
 .text.fsl_esdhc_mmc_init
                0xe9fa3380       0x54 drivers/mmc/libmmc.o
                0xe9fa3380                fsl_esdhc_mmc_init
 .text.fdt_fixup_esdhc
                0xe9fa33d4       0x58 drivers/mmc/libmmc.o
                0xe9fa33d4                fdt_fixup_esdhc
 .text.mmc_send_cmd
                0xe9fa342c       0x4c drivers/mmc/libmmc.o
 .text.mmc_go_idle
                0xe9fa3478       0x60 drivers/mmc/libmmc.o
 .text.mmc_send_ext_csd
                0xe9fa34d8       0x58 drivers/mmc/libmmc.o
 .text.sd_switch.constprop.5
                0xe9fa3530       0x60 drivers/mmc/libmmc.o
 .text.mmc_send_status.constprop.6
                0xe9fa3590       0xd8 drivers/mmc/libmmc.o
 .text.mmc_switch.isra.1
                0xe9fa3668       0x60 drivers/mmc/libmmc.o
 .text.__board_mmc_getcd
                0xe9fa36c8        0x8 drivers/mmc/libmmc.o
                0xe9fa36c8                __board_mmc_getcd
                0xe9fa36c8                board_mmc_getcd
 .text.find_mmc_device
                0xe9fa36d0       0x54 drivers/mmc/libmmc.o
                0xe9fa36d0                find_mmc_device
 .text.mmc_berase
                0xe9fa3724      0x190 drivers/mmc/libmmc.o
 .text.mmc_bwrite
                0xe9fa38b4      0x1a0 drivers/mmc/libmmc.o
 .text.mmc_bread
                0xe9fa3a54      0x180 drivers/mmc/libmmc.o
 .text.mmc_switch_part
                0xe9fa3bd4       0x58 drivers/mmc/libmmc.o
                0xe9fa3bd4                mmc_switch_part
 .text.mmc_getcd
                0xe9fa3c2c       0x44 drivers/mmc/libmmc.o
                0xe9fa3c2c                mmc_getcd
 .text.mmc_set_clock
                0xe9fa3c70       0x4c drivers/mmc/libmmc.o
                0xe9fa3c70                mmc_set_clock
 .text.mmc_startup
                0xe9fa3cbc      0x8e0 drivers/mmc/libmmc.o
 .text.mmc_register
                0xe9fa459c       0x94 drivers/mmc/libmmc.o
                0xe9fa459c                mmc_register
 .text.mmc_init
                0xe9fa4630      0x358 drivers/mmc/libmmc.o
                0xe9fa4630                mmc_init
 .text.mmc_get_dev
                0xe9fa4988       0x3c drivers/mmc/libmmc.o
                0xe9fa4988                mmc_get_dev
 .text.__def_mmc_init
                0xe9fa49c4        0x8 drivers/mmc/libmmc.o
                0xe9fa49c4                board_mmc_init
 .text.print_mmc_devices
                0xe9fa49cc       0x74 drivers/mmc/libmmc.o
                0xe9fa49cc                print_mmc_devices
 .text.get_mmc_num
                0xe9fa4a40       0x2c drivers/mmc/libmmc.o
                0xe9fa4a40                get_mmc_num
 .text.mmc_initialize
                0xe9fa4a6c       0x5c drivers/mmc/libmmc.o
                0xe9fa4a6c                mmc_initialize
 .text.flash_make_cmd
                0xe9fa4ac8       0x64 drivers/mtd/libmtd.o
 .text.flash_isequal
                0xe9fa4b2c       0xd0 drivers/mtd/libmtd.o
 .text.flash_isset
                0xe9fa4bfc       0xd4 drivers/mtd/libmtd.o
 .text.find_sector
                0xe9fa4cd0       0xd8 drivers/mtd/libmtd.o
 .text.cfi_reverse_geometry
                0xe9fa4da8       0x4c drivers/mtd/libmtd.o
 .text.flash_add_byte.isra.5
                0xe9fa4df4       0xa0 drivers/mtd/libmtd.o
 .text.__cfi_flash_bank_addr
                0xe9fa4e94        0xc drivers/mtd/libmtd.o
                0xe9fa4e94                cfi_flash_bank_addr
 .text.__cfi_flash_bank_size
                0xe9fa4ea0        0x8 drivers/mtd/libmtd.o
                0xe9fa4ea0                cfi_flash_bank_size
 .text.flash_get_info
                0xe9fa4ea8       0x28 drivers/mtd/libmtd.o
                0xe9fa4ea8                flash_get_info
 .text.flash_sector_size
                0xe9fa4ed0       0x50 drivers/mtd/libmtd.o
                0xe9fa4ed0                flash_sector_size
 .text.flash_write_cmd
                0xe9fa4f20       0xac drivers/mtd/libmtd.o
                0xe9fa4f20                flash_write_cmd
 .text.flash_unlock_seq
                0xe9fa4fcc       0x40 drivers/mtd/libmtd.o
 .text.flash_status_check
                0xe9fa500c      0x1f0 drivers/mtd/libmtd.o
 .text.flash_full_status_check
                0xe9fa51fc      0x178 drivers/mtd/libmtd.o
 .text.flash_write_cfiword
                0xe9fa5374      0x204 drivers/mtd/libmtd.o
 .text.flash_erase
                0xe9fa5578      0x1d4 drivers/mtd/libmtd.o
                0xe9fa5578                flash_erase
 .text.flash_print_info
                0xe9fa574c      0x274 drivers/mtd/libmtd.o
                0xe9fa574c                flash_print_info
 .text.write_buff
                0xe9fa59c0      0x78c drivers/mtd/libmtd.o
                0xe9fa59c0                write_buff
 .text.__flash_cmd_reset
                0xe9fa614c       0x4c drivers/mtd/libmtd.o
                0xe9fa614c                flash_cmd_reset
 .text.flash_get_size
                0xe9fa6198      0x864 drivers/mtd/libmtd.o
                0xe9fa6198                flash_get_size
 .text.flash_protect_default
                0xe9fa69fc       0x6c drivers/mtd/libmtd.o
                0xe9fa69fc                flash_protect_default
 .text.flash_init
                0xe9fa6a68       0x5c drivers/mtd/libmtd.o
                0xe9fa6a68                flash_init
 .text.dtsec_enable_mac
                0xe9fa6ac4       0x5c drivers/net/fm/libfm.o
 .text.dtsec_disable_mac
                0xe9fa6b20       0x60 drivers/net/fm/libfm.o
 .text.dtsec_set_mac_addr
                0xe9fa6b80       0x54 drivers/net/fm/libfm.o
 .text.dtsec_set_interface_mode
                0xe9fa6bd4       0xb8 drivers/net/fm/libfm.o
 .text.dtsec_init_mac
                0xe9fa6c8c       0xa4 drivers/net/fm/libfm.o
 .text.init_dtsec
                0xe9fa6d30       0x58 drivers/net/fm/libfm.o
                0xe9fa6d30                init_dtsec
 .text.muram_readw
                0xe9fa6d88       0x20 drivers/net/fm/libfm.o
 .text.muram_writew
                0xe9fa6da8       0x2c drivers/net/fm/libfm.o
 .text.fm_eth_recv
                0xe9fa6dd4       0xd8 drivers/net/fm/libfm.o
 .text.fm_eth_send
                0xe9fa6eac      0x12c drivers/net/fm/libfm.o
 .text.fm_eth_halt
                0xe9fa6fd8       0xdc drivers/net/fm/libfm.o
 .text.fm_eth_open
                0xe9fa70b4      0x134 drivers/net/fm/libfm.o
 .text.fm_eth_initialize
                0xe9fa71e8      0x618 drivers/net/fm/libfm.o
                0xe9fa71e8                fm_eth_initialize
 .text.fm_assign_risc
                0xe9fa7800       0x24 drivers/net/fm/libfm.o
 .text.fm_muram_base
                0xe9fa7824       0x30 drivers/net/fm/libfm.o
                0xe9fa7824                fm_muram_base
 .text.fm_muram_alloc
                0xe9fa7854       0xbc drivers/net/fm/libfm.o
                0xe9fa7854                fm_muram_alloc
 .text.fm_init_common
                0xe9fa7910      0x4f0 drivers/net/fm/libfm.o
                0xe9fa7910                fm_init_common
 .text.fm_port_to_index
                0xe9fa7e00       0x50 drivers/net/fm/libfm.o
 .text.ft_fixup_port
                0xe9fa7e50      0x114 drivers/net/fm/libfm.o
 .text.fm_standard_init
                0xe9fa7f64       0x8c drivers/net/fm/libfm.o
                0xe9fa7f64                fm_standard_init
 .text.fman_enet_init
                0xe9fa7ff0       0x74 drivers/net/fm/libfm.o
                0xe9fa7ff0                fman_enet_init
 .text.fm_info_set_mdio
                0xe9fa8064       0x40 drivers/net/fm/libfm.o
                0xe9fa8064                fm_info_set_mdio
 .text.fm_info_set_phy_address
                0xe9fa80a4       0x40 drivers/net/fm/libfm.o
                0xe9fa80a4                fm_info_set_phy_address
 .text.fm_info_get_enet_if
                0xe9fa80e4       0x50 drivers/net/fm/libfm.o
                0xe9fa80e4                fm_info_get_enet_if
 .text.fdt_fixup_fman_ethernet
                0xe9fa8134       0x70 drivers/net/fm/libfm.o
                0xe9fa8134                fdt_fixup_fman_ethernet
 .text.tgec_enable_mac
                0xe9fa81a4       0x24 drivers/net/fm/libfm.o
 .text.tgec_disable_mac
                0xe9fa81c8       0x24 drivers/net/fm/libfm.o
 .text.tgec_set_mac_addr
                0xe9fa81ec       0x50 drivers/net/fm/libfm.o
 .text.tgec_set_interface_mode
                0xe9fa823c        0x4 drivers/net/fm/libfm.o
 .text.tgec_init_mac
                0xe9fa8240       0x70 drivers/net/fm/libfm.o
 .text.init_tgec
                0xe9fa82b0       0x58 drivers/net/fm/libfm.o
                0xe9fa82b0                init_tgec
 .text.tgec_mdio_write
                0xe9fa8308       0x98 drivers/net/fm/libfm.o
 .text.tgec_mdio_read
                0xe9fa83a0       0xd4 drivers/net/fm/libfm.o
 .text.tgec_mdio_reset
                0xe9fa8474        0x8 drivers/net/fm/libfm.o
 .text.fm_tgec_mdio_init
                0xe9fa847c       0x74 drivers/net/fm/libfm.o
                0xe9fa847c                fm_tgec_mdio_init
 .text.fman_port_enet_if
                0xe9fa84f0       0xfc drivers/net/fm/libfm.o
                0xe9fa84f0                fman_port_enet_if
 .text.fsl_pq_mdio_reset
                0xe9fa85ec       0x3c drivers/net/libnet.o
 .text.tsec_local_mdio_write
                0xe9fa8628       0x4c drivers/net/libnet.o
                0xe9fa8628                tsec_local_mdio_write
 .text.tsec_phy_write
                0xe9fa8674       0x28 drivers/net/libnet.o
                0xe9fa8674                tsec_phy_write
 .text.tsec_local_mdio_read
                0xe9fa869c       0x70 drivers/net/libnet.o
                0xe9fa869c                tsec_local_mdio_read
 .text.tsec_phy_read
                0xe9fa870c       0x24 drivers/net/libnet.o
                0xe9fa870c                tsec_phy_read
 .text.fsl_pq_mdio_init
                0xe9fa8730       0x74 drivers/net/libnet.o
                0xe9fa8730                fsl_pq_mdio_init
 .text.genphy_shutdown
                0xe9fa87a4        0x8 drivers/net/phy/libphy.o
                0xe9fa87a4                genphy_shutdown
 .text.get_phy_id
                0xe9fa87ac       0x88 drivers/net/phy/libphy.o
 .text.phy_device_create
                0xe9fa8834      0x100 drivers/net/phy/libphy.o
 .text.get_phy_device
                0xe9fa8934       0xcc drivers/net/phy/libphy.o
 .text.genphy_restart_aneg
                0xe9fa8a00       0x68 drivers/net/phy/libphy.o
                0xe9fa8a00                genphy_restart_aneg
 .text.genphy_config_aneg
                0xe9fa8a68      0x20c drivers/net/phy/libphy.o
                0xe9fa8a68                genphy_config_aneg
 .text.genphy_config
                0xe9fa8c74       0xdc drivers/net/phy/libphy.o
                0xe9fa8c74                genphy_config
 .text.genphy_update_link
                0xe9fa8d50      0x154 drivers/net/phy/libphy.o
                0xe9fa8d50                genphy_update_link
 .text.genphy_startup
                0xe9fa8ea4      0x184 drivers/net/phy/libphy.o
                0xe9fa8ea4                genphy_startup
 .text.phy_init
                0xe9fa9028       0x30 drivers/net/phy/libphy.o
                0xe9fa9028                phy_init
 .text.phy_register
                0xe9fa9058       0x44 drivers/net/phy/libphy.o
                0xe9fa9058                phy_register
 .text.phy_reset
                0xe9fa909c       0xe0 drivers/net/phy/libphy.o
                0xe9fa909c                phy_reset
 .text.phy_connect
                0xe9fa917c       0xa4 drivers/net/phy/libphy.o
                0xe9fa917c                phy_connect
 .text.phy_startup
                0xe9fa9220       0x40 drivers/net/phy/libphy.o
                0xe9fa9220                phy_startup
 .text.__board_phy_config
                0xe9fa9260       0x40 drivers/net/phy/libphy.o
                0xe9fa9260                board_phy_config
 .text.phy_config
                0xe9fa92a0       0x24 drivers/net/phy/libphy.o
                0xe9fa92a0                phy_config
 .text.phy_shutdown
                0xe9fa92c4       0x38 drivers/net/phy/libphy.o
                0xe9fa92c4                phy_shutdown
 .text.rtl8211b_startup
                0xe9fa92fc      0x134 drivers/net/phy/libphy.o
 .text.rtl8211b_config
                0xe9fa9430       0x50 drivers/net/phy/libphy.o
 .text.phy_realtek_init
                0xe9fa9480       0x2c drivers/net/phy/libphy.o
                0xe9fa9480                phy_realtek_init
 .text.set_inbound_window
                0xe9fa94ac       0x90 drivers/pci/libpci.o
 .text.fsl_is_pci_agent
                0xe9fa953c       0x84 drivers/pci/libpci.o
                0xe9fa953c                fsl_is_pci_agent
 .text.fsl_pci_init
                0xe9fa95c0      0x964 drivers/pci/libpci.o
                0xe9fa95c0                fsl_pci_init
 .text.fsl_setup_hose
                0xe9fa9f24       0x44 drivers/pci/libpci.o
                0xe9fa9f24                fsl_setup_hose
 .text.fsl_pci_config_unlock
                0xe9fa9f68       0x90 drivers/pci/libpci.o
                0xe9fa9f68                fsl_pci_config_unlock
 .text.fsl_pci_init_port
                0xe9fa9ff8      0x174 drivers/pci/libpci.o
                0xe9fa9ff8                fsl_pci_init_port
 .text.fsl_configure_pcie
                0xe9faa16c       0xf4 drivers/pci/libpci.o
                0xe9faa16c                fsl_configure_pcie
 .text.__board_serdes_name
                0xe9faa260        0x8 drivers/pci/libpci.o
                0xe9faa260                board_serdes_name
 .text.fsl_pcie_init_ctrl
                0xe9faa268       0xa0 drivers/pci/libpci.o
                0xe9faa268                fsl_pcie_init_ctrl
 .text.fsl_pcie_init_board
                0xe9faa308      0x164 drivers/pci/libpci.o
                0xe9faa308                fsl_pcie_init_board
 .text.ft_fsl_pci_setup
                0xe9faa46c       0xc8 drivers/pci/libpci.o
                0xe9faa46c                ft_fsl_pci_setup
 .text.pci_hose_read_config_byte
                0xe9faa534       0x28 drivers/pci/libpci.o
                0xe9faa534                pci_hose_read_config_byte
 .text.pci_hose_read_config_word
                0xe9faa55c       0x28 drivers/pci/libpci.o
                0xe9faa55c                pci_hose_read_config_word
 .text.pci_hose_read_config_dword
                0xe9faa584       0x28 drivers/pci/libpci.o
                0xe9faa584                pci_hose_read_config_dword
 .text.pci_hose_write_config_byte
                0xe9faa5ac       0x28 drivers/pci/libpci.o
                0xe9faa5ac                pci_hose_write_config_byte
 .text.pci_hose_write_config_word
                0xe9faa5d4       0x28 drivers/pci/libpci.o
                0xe9faa5d4                pci_hose_write_config_word
 .text.pci_hose_write_config_dword
                0xe9faa5fc       0x28 drivers/pci/libpci.o
                0xe9faa5fc                pci_hose_write_config_dword
 .text.pci_register_hose
                0xe9faa624       0x48 drivers/pci/libpci.o
                0xe9faa624                pci_register_hose
 .text.pci_bus_to_hose
                0xe9faa66c       0x5c drivers/pci/libpci.o
                0xe9faa66c                pci_bus_to_hose
 .text.pci_write_config_dword
                0xe9faa6c8       0x50 drivers/pci/libpci.o
                0xe9faa6c8                pci_write_config_dword
 .text.pci_write_config_word
                0xe9faa718       0x50 drivers/pci/libpci.o
                0xe9faa718                pci_write_config_word
 .text.pci_write_config_byte
                0xe9faa768       0x50 drivers/pci/libpci.o
                0xe9faa768                pci_write_config_byte
 .text.pci_read_config_dword
                0xe9faa7b8       0x54 drivers/pci/libpci.o
                0xe9faa7b8                pci_read_config_dword
 .text.pci_read_config_word
                0xe9faa80c       0x54 drivers/pci/libpci.o
                0xe9faa80c                pci_read_config_word
 .text.pci_read_config_byte
                0xe9faa860       0x54 drivers/pci/libpci.o
                0xe9faa860                pci_read_config_byte
 .text.find_hose_by_cfg_addr
                0xe9faa8b4       0x48 drivers/pci/libpci.o
                0xe9faa8b4                find_hose_by_cfg_addr
 .text.pci_class_str
                0xe9faa8fc      0x120 drivers/pci/libpci.o
                0xe9faa8fc                pci_class_str
 .text.__pci_skip_dev
                0xe9faaa1c       0x18 drivers/pci/libpci.o
                0xe9faaa1c                __pci_skip_dev
                0xe9faaa1c                pci_skip_dev
 .text.__pci_print_dev
                0xe9faaa34       0x1c drivers/pci/libpci.o
                0xe9faaa34                pci_print_dev
                0xe9faaa34                __pci_print_dev
 .text.pci_hose_scan_bus
                0xe9faaa50      0x19c drivers/pci/libpci.o
                0xe9faaa50                pci_hose_scan_bus
 .text.pci_init
                0xe9faabec       0x30 drivers/pci/libpci.o
                0xe9faabec                pci_init
 .text.pciauto_region_init
                0xe9faac1c       0x24 drivers/pci/libpci.o
                0xe9faac1c                pciauto_region_init
 .text.pciauto_region_align
                0xe9faac40       0x3c drivers/pci/libpci.o
                0xe9faac40                pciauto_region_align
 .text.pciauto_region_allocate
                0xe9faac7c       0xb8 drivers/pci/libpci.o
                0xe9faac7c                pciauto_region_allocate
 .text.pciauto_setup_device
                0xe9faad34      0x204 drivers/pci/libpci.o
                0xe9faad34                pciauto_setup_device
 .text.pciauto_prescan_setup_bridge
                0xe9faaf38      0x19c drivers/pci/libpci.o
                0xe9faaf38                pciauto_prescan_setup_bridge
 .text.pciauto_postscan_setup_bridge
                0xe9fab0d4      0x118 drivers/pci/libpci.o
                0xe9fab0d4                pciauto_postscan_setup_bridge
 .text.pciauto_config_init
                0xe9fab1ec      0x180 drivers/pci/libpci.o
                0xe9fab1ec                pciauto_config_init
 .text.pciauto_config_device
                0xe9fab36c      0x128 drivers/pci/libpci.o
                0xe9fab36c                pciauto_config_device
 .text.indirect_read_config_byte
                0xe9fab494       0x60 drivers/pci/libpci.o
 .text.indirect_read_config_word
                0xe9fab4f4       0x60 drivers/pci/libpci.o
 .text.indirect_read_config_dword
                0xe9fab554       0x58 drivers/pci/libpci.o
 .text.indirect_write_config_byte
                0xe9fab5ac       0x54 drivers/pci/libpci.o
 .text.indirect_write_config_word
                0xe9fab600       0x54 drivers/pci/libpci.o
 .text.indirect_write_config_dword
                0xe9fab654       0x4c drivers/pci/libpci.o
 .text.pci_setup_indirect
                0xe9fab6a0       0x5c drivers/pci/libpci.o
                0xe9fab6a0                pci_setup_indirect
 .text.GregorianDay
                0xe9fab6fc       0xdc drivers/rtc/librtc.o
                0xe9fab6fc                GregorianDay
 .text.to_tm    0xe9fab7d8       0xf0 drivers/rtc/librtc.o
                0xe9fab7d8                to_tm
 .text.rtc_write
                0xe9fab8c8       0x3c drivers/rtc/librtc.o
 .text.rtc_read
                0xe9fab904       0x38 drivers/rtc/librtc.o
 .text.rtc_get  0xe9fab93c      0x178 drivers/rtc/librtc.o
                0xe9fab93c                rtc_get
 .text.rtc_set  0xe9fabab4      0x14c drivers/rtc/librtc.o
                0xe9fabab4                rtc_set
 .text.rtc_reset
                0xe9fabc00        0x4 drivers/rtc/librtc.o
                0xe9fabc00                rtc_reset
 .text.NS16550_init
                0xe9fabc04       0x8c drivers/serial/libserial.o
                0xe9fabc04                NS16550_init
 .text.NS16550_reinit
                0xe9fabc90       0x78 drivers/serial/libserial.o
                0xe9fabc90                NS16550_reinit
 .text.NS16550_putc
                0xe9fabd08       0x24 drivers/serial/libserial.o
                0xe9fabd08                NS16550_putc
 .text.NS16550_getc
                0xe9fabd2c       0x30 drivers/serial/libserial.o
                0xe9fabd2c                NS16550_getc
 .text.NS16550_tstc
                0xe9fabd5c       0x18 drivers/serial/libserial.o
                0xe9fabd5c                NS16550_tstc
 .text.get_current
                0xe9fabd74       0x50 drivers/serial/libserial.o
 .text.serial_null
                0xe9fabdc4        0x4 drivers/serial/libserial.o
                0xe9fabdc4                jz_serial_initialize
                0xe9fabdc4                bfin_serial_initialize
                0xe9fabdc4                p3mx_serial_initialize
                0xe9fabdc4                leon2_serial_initialize
                0xe9fabdc4                leon3_serial_initialize
                0xe9fabdc4                amirix_serial_initialize
                0xe9fabdc4                marvell_serial_initialize
                0xe9fabdc4                cpci750_serial_initialize
                0xe9fabdc4                asc_serial_initialize
                0xe9fabdc4                altera_serial_initialize
                0xe9fabdc4                oc_serial_initialize
                0xe9fabdc4                sh_serial_initialize
                0xe9fabdc4                bmw_serial_initialize
                0xe9fabdc4                mcf_serial_initialize
                0xe9fabdc4                lh7a40x_serial_initialize
                0xe9fabdc4                evb64260_serial_initialize
                0xe9fabdc4                lpc32xx_serial_initialize
                0xe9fabdc4                max3100_serial_initialize
                0xe9fabdc4                mpc85xx_serial_initialize
                0xe9fabdc4                imx_serial_initialize
                0xe9fabdc4                ixp_serial_initialize
                0xe9fabdc4                bfin_jtag_initialize
                0xe9fabdc4                cogent_serial_initialize
                0xe9fabdc4                clps7111_serial_initialize
                0xe9fabdc4                mpc8220_serial_initialize
                0xe9fabdc4                s3c64xx_serial_initialize
                0xe9fabdc4                ml2_serial_initialize
                0xe9fabdc4                sandbox_serial_initialize
                0xe9fabdc4                s3c24xx_serial_initialize
                0xe9fabdc4                sconsole_serial_initialize
                0xe9fabdc4                uartlite_serial_initialize
                0xe9fabdc4                au1x00_serial_initialize
                0xe9fabdc4                ns9750_serial_initialize
                0xe9fabdc4                pxa_serial_initialize
                0xe9fabdc4                atmel_serial_initialize
                0xe9fabdc4                pl01x_serial_initialize
                0xe9fabdc4                altera_jtag_serial_initialize
                0xe9fabdc4                zynq_serial_initalize
                0xe9fabdc4                mpc512x_serial_initialize
                0xe9fabdc4                s5p_serial_initialize
                0xe9fabdc4                ks8695_serial_initialize
                0xe9fabdc4                sa1100_serial_initialize
                0xe9fabdc4                mpc8260_scc_serial_initialize
                0xe9fabdc4                mxc_serial_initialize
                0xe9fabdc4                iop480_serial_initialize
                0xe9fabdc4                s3c44b0_serial_initialize
                0xe9fabdc4                mpc8xx_serial_initialize
                0xe9fabdc4                mpc8260_smc_serial_initialize
                0xe9fabdc4                mpc5xx_serial_initialize
 .text.serial_register
                0xe9fabdc8       0x34 drivers/serial/libserial.o
                0xe9fabdc8                serial_register
 .text.serial_stdio_init
                0xe9fabdfc       0x94 drivers/serial/libserial.o
                0xe9fabdfc                serial_stdio_init
 .text.serial_assign
                0xe9fabe90       0x68 drivers/serial/libserial.o
                0xe9fabe90                serial_assign
 .text.serial_initialize
                0xe9fabef8       0xec drivers/serial/libserial.o
                0xe9fabef8                serial_initialize
 .text.serial_init
                0xe9fabfe4       0x2c drivers/serial/libserial.o
                0xe9fabfe4                serial_init
 .text.serial_setbrg
                0xe9fac010       0x2c drivers/serial/libserial.o
                0xe9fac010                serial_setbrg
 .text.on_baudrate
                0xe9fac03c      0x114 drivers/serial/libserial.o
 .text.serial_getc
                0xe9fac150       0x2c drivers/serial/libserial.o
                0xe9fac150                serial_getc
 .text.serial_tstc
                0xe9fac17c       0x2c drivers/serial/libserial.o
                0xe9fac17c                serial_tstc
 .text.serial_putc
                0xe9fac1a8       0x34 drivers/serial/libserial.o
                0xe9fac1a8                serial_putc
 .text.serial_puts
                0xe9fac1dc       0x34 drivers/serial/libserial.o
                0xe9fac1dc                serial_puts
 .text.calc_divisor.isra.0
                0xe9fac210       0x40 drivers/serial/libserial.o
 .text.eserial6_init
                0xe9fac250       0x30 drivers/serial/libserial.o
 .text.eserial5_init
                0xe9fac280       0x30 drivers/serial/libserial.o
 .text.eserial4_init
                0xe9fac2b0       0x34 drivers/serial/libserial.o
 .text.eserial3_init
                0xe9fac2e4       0x34 drivers/serial/libserial.o
 .text.eserial2_init
                0xe9fac318       0x34 drivers/serial/libserial.o
 .text.eserial1_init
                0xe9fac34c       0x34 drivers/serial/libserial.o
 .text._serial_putc
                0xe9fac380       0x60 drivers/serial/libserial.o
                0xe9fac380                _serial_putc
 .text.eserial1_putc
                0xe9fac3e0       0x24 drivers/serial/libserial.o
 .text.eserial2_putc
                0xe9fac404       0x24 drivers/serial/libserial.o
 .text.eserial3_putc
                0xe9fac428       0x24 drivers/serial/libserial.o
 .text.eserial4_putc
                0xe9fac44c       0x24 drivers/serial/libserial.o
 .text.eserial5_putc
                0xe9fac470       0x24 drivers/serial/libserial.o
 .text.eserial6_putc
                0xe9fac494       0x24 drivers/serial/libserial.o
 .text._serial_puts
                0xe9fac4b8       0x3c drivers/serial/libserial.o
                0xe9fac4b8                _serial_puts
 .text.eserial1_puts
                0xe9fac4f4       0x24 drivers/serial/libserial.o
 .text.eserial2_puts
                0xe9fac518       0x24 drivers/serial/libserial.o
 .text.eserial3_puts
                0xe9fac53c       0x24 drivers/serial/libserial.o
 .text.eserial4_puts
                0xe9fac560       0x24 drivers/serial/libserial.o
 .text.eserial5_puts
                0xe9fac584       0x24 drivers/serial/libserial.o
 .text.eserial6_puts
                0xe9fac5a8       0x24 drivers/serial/libserial.o
 .text._serial_getc
                0xe9fac5cc       0x34 drivers/serial/libserial.o
                0xe9fac5cc                _serial_getc
 .text.eserial1_getc
                0xe9fac600       0x24 drivers/serial/libserial.o
 .text.eserial2_getc
                0xe9fac624       0x24 drivers/serial/libserial.o
 .text.eserial3_getc
                0xe9fac648       0x24 drivers/serial/libserial.o
 .text.eserial4_getc
                0xe9fac66c       0x24 drivers/serial/libserial.o
 .text.eserial5_getc
                0xe9fac690       0x24 drivers/serial/libserial.o
 .text.eserial6_getc
                0xe9fac6b4       0x24 drivers/serial/libserial.o
 .text._serial_tstc
                0xe9fac6d8       0x34 drivers/serial/libserial.o
                0xe9fac6d8                _serial_tstc
 .text.eserial1_tstc
                0xe9fac70c       0x24 drivers/serial/libserial.o
 .text.eserial2_tstc
                0xe9fac730       0x24 drivers/serial/libserial.o
 .text.eserial3_tstc
                0xe9fac754       0x24 drivers/serial/libserial.o
 .text.eserial4_tstc
                0xe9fac778       0x24 drivers/serial/libserial.o
 .text.eserial5_tstc
                0xe9fac79c       0x24 drivers/serial/libserial.o
 .text.eserial6_tstc
                0xe9fac7c0       0x24 drivers/serial/libserial.o
 .text._serial_setbrg
                0xe9fac7e4       0x40 drivers/serial/libserial.o
                0xe9fac7e4                _serial_setbrg
 .text.eserial1_setbrg
                0xe9fac824       0x24 drivers/serial/libserial.o
 .text.eserial2_setbrg
                0xe9fac848       0x24 drivers/serial/libserial.o
 .text.eserial3_setbrg
                0xe9fac86c       0x24 drivers/serial/libserial.o
 .text.eserial4_setbrg
                0xe9fac890       0x24 drivers/serial/libserial.o
 .text.eserial5_setbrg
                0xe9fac8b4       0x24 drivers/serial/libserial.o
 .text.eserial6_setbrg
                0xe9fac8d8       0x24 drivers/serial/libserial.o
 .text.default_serial_console
                0xe9fac8fc       0x28 drivers/serial/libserial.o
                0xe9fac8fc                default_serial_console
 .text.ns16550_serial_initialize
                0xe9fac924       0x40 drivers/serial/libserial.o
                0xe9fac924                ns16550_serial_initialize
 .text.get_fs   0xe9fac964       0x28 fs/ext4/libext4fs.o
                0xe9fac964                get_fs
 .text.ext4fs_free_node
                0xe9fac98c       0x40 fs/ext4/libext4fs.o
                0xe9fac98c                ext4fs_free_node
 .text.ext4fs_read_file
                0xe9fac9cc      0x1f4 fs/ext4/libext4fs.o
                0xe9fac9cc                ext4fs_read_file
 .text.ext4fs_ls
                0xe9facbc0       0x84 fs/ext4/libext4fs.o
                0xe9facbc0                ext4fs_ls
 .text.ext4fs_read
                0xe9facc44       0x58 fs/ext4/libext4fs.o
                0xe9facc44                ext4fs_read
 .text.ext4fs_read_inode
                0xe9facc9c      0x14c fs/ext4/libext4fs.o
                0xe9facc9c                ext4fs_read_inode
 .text.read_allocated_block
                0xe9facde8      0xa98 fs/ext4/libext4fs.o
                0xe9facde8                read_allocated_block
 .text.ext4fs_close
                0xe9fad880       0xfc fs/ext4/libext4fs.o
                0xe9fad880                ext4fs_close
 .text.ext4fs_iterate_dir
                0xe9fad97c      0x334 fs/ext4/libext4fs.o
                0xe9fad97c                ext4fs_iterate_dir
 .text.ext4fs_find_file1
                0xe9fadcb0      0x2d0 fs/ext4/libext4fs.o
 .text.ext4fs_find_file
                0xe9fadf80       0x84 fs/ext4/libext4fs.o
                0xe9fadf80                ext4fs_find_file
 .text.ext4fs_open
                0xe9fae004       0xc4 fs/ext4/libext4fs.o
                0xe9fae004                ext4fs_open
 .text.ext4fs_mount
                0xe9fae0c8      0x124 fs/ext4/libext4fs.o
                0xe9fae0c8                ext4fs_mount
 .text.ext4fs_set_blk_dev
                0xe9fae1ec       0x6c fs/ext4/libext4fs.o
                0xe9fae1ec                ext4fs_set_blk_dev
 .text.ext4fs_devread
                0xe9fae258      0x1ec fs/ext4/libext4fs.o
                0xe9fae258                ext4fs_devread
 .text.downcase
                0xe9fae444       0x30 fs/fat/libfat.o
 .text.disk_read
                0xe9fae474       0x68 fs/fat/libfat.o
 .text.dirdelim
                0xe9fae4dc       0x38 fs/fat/libfat.o
 .text.mkcksum  0xe9fae514       0x64 fs/fat/libfat.o
 .text.get_name
                0xe9fae578       0xe8 fs/fat/libfat.o
 .text.get_fatent
                0xe9fae660      0x1d0 fs/fat/libfat.o
 .text.read_bootsectandvi
                0xe9fae830      0x1e8 fs/fat/libfat.o
 .text.get_cluster
                0xe9faea18      0x1c8 fs/fat/libfat.o
 .text.slot2str
                0xe9faebe0       0xd8 fs/fat/libfat.o
 .text.get_vfatname
                0xe9faecb8      0x200 fs/fat/libfat.o
 .text.fat_set_blk_dev
                0xe9faeeb8       0xdc fs/fat/libfat.o
                0xe9faeeb8                fat_set_blk_dev
 .text.do_fat_read_at
                0xe9faef94      0xaf0 fs/fat/libfat.o
                0xe9faef94                do_fat_read_at
 .text.do_fat_read
                0xe9fafa84       0x38 fs/fat/libfat.o
                0xe9fafa84                do_fat_read
 .text.file_fat_detectfs
                0xe9fafabc      0x118 fs/fat/libfat.o
                0xe9fafabc                file_fat_detectfs
 .text.file_fat_ls
                0xe9fafbd4       0x2c fs/fat/libfat.o
                0xe9fafbd4                file_fat_ls
 .text.file_fat_read_at
                0xe9fafc00       0x54 fs/fat/libfat.o
                0xe9fafc00                file_fat_read_at
 .text.file_fat_read
                0xe9fafc54       0x30 fs/fat/libfat.o
                0xe9fafc54                file_fat_read
 .text.fs_close
                0xe9fafc84       0x40 fs/libfs.o
 .text.fs_probe_ext
                0xe9fafcc4       0x54 fs/libfs.o
 .text.fs_probe_fat
                0xe9fafd18       0x30 fs/libfs.o
 .text.fs_set_blk_dev
                0xe9fafd48       0xbc fs/libfs.o
                0xe9fafd48                fs_set_blk_dev
 .text.fs_ls    0xe9fafe04       0x64 fs/libfs.o
                0xe9fafe04                fs_ls
 .text.fs_read  0xe9fafe68       0xec fs/libfs.o
                0xe9fafe68                fs_read
 .text.do_load  0xe9faff54      0x1cc fs/libfs.o
                0xe9faff54                do_load
 .text.do_ls    0xe9fb0120       0x88 fs/libfs.o
                0xe9fb0120                do_ls
 .text.fdt_check_header
                0xe9fb01a8       0x5c lib/libfdt/libfdt.o
                0xe9fb01a8                fdt_check_header
 .text.fdt_offset_ptr
                0xe9fb0204       0x48 lib/libfdt/libfdt.o
                0xe9fb0204                fdt_offset_ptr
 .text.fdt_next_tag
                0xe9fb024c       0xfc lib/libfdt/libfdt.o
                0xe9fb024c                fdt_next_tag
 .text._fdt_check_node_offset
                0xe9fb0348       0x4c lib/libfdt/libfdt.o
                0xe9fb0348                _fdt_check_node_offset
 .text._fdt_check_prop_offset
                0xe9fb0394       0x4c lib/libfdt/libfdt.o
                0xe9fb0394                _fdt_check_prop_offset
 .text.fdt_next_node
                0xe9fb03e0       0xe0 lib/libfdt/libfdt.o
                0xe9fb03e0                fdt_next_node
 .text._fdt_find_string
                0xe9fb04c0       0x68 lib/libfdt/libfdt.o
                0xe9fb04c0                _fdt_find_string
 .text.fdt_move
                0xe9fb0528       0x58 lib/libfdt/libfdt.o
                0xe9fb0528                fdt_move
 .text._nextprop
                0xe9fb0580       0x68 lib/libfdt/libfdt.o
 .text.fdt_string
                0xe9fb05e8       0x10 lib/libfdt/libfdt.o
                0xe9fb05e8                fdt_string
 .text.fdt_get_mem_rsv
                0xe9fb05f8       0x64 lib/libfdt/libfdt.o
                0xe9fb05f8                fdt_get_mem_rsv
 .text.fdt_num_mem_rsv
                0xe9fb065c       0x2c lib/libfdt/libfdt.o
                0xe9fb065c                fdt_num_mem_rsv
 .text.fdt_subnode_offset_namelen
                0xe9fb0688       0xe8 lib/libfdt/libfdt.o
                0xe9fb0688                fdt_subnode_offset_namelen
 .text.fdt_subnode_offset
                0xe9fb0770       0x44 lib/libfdt/libfdt.o
                0xe9fb0770                fdt_subnode_offset
 .text.fdt_get_name
                0xe9fb07b4       0x7c lib/libfdt/libfdt.o
                0xe9fb07b4                fdt_get_name
 .text.fdt_first_property_offset
                0xe9fb0830       0x44 lib/libfdt/libfdt.o
                0xe9fb0830                fdt_first_property_offset
 .text.fdt_next_property_offset
                0xe9fb0874       0x44 lib/libfdt/libfdt.o
                0xe9fb0874                fdt_next_property_offset
 .text.fdt_get_property_by_offset
                0xe9fb08b8       0x60 lib/libfdt/libfdt.o
                0xe9fb08b8                fdt_get_property_by_offset
 .text.fdt_get_property_namelen
                0xe9fb0918       0xb4 lib/libfdt/libfdt.o
                0xe9fb0918                fdt_get_property_namelen
 .text.fdt_get_property
                0xe9fb09cc       0x48 lib/libfdt/libfdt.o
                0xe9fb09cc                fdt_get_property
 .text.fdt_getprop_namelen
                0xe9fb0a14       0x34 lib/libfdt/libfdt.o
                0xe9fb0a14                fdt_getprop_namelen
 .text.fdt_getprop
                0xe9fb0a48       0x48 lib/libfdt/libfdt.o
                0xe9fb0a48                fdt_getprop
 .text.fdt_get_phandle
                0xe9fb0a90       0x7c lib/libfdt/libfdt.o
                0xe9fb0a90                fdt_get_phandle
 .text.fdt_get_alias_namelen
                0xe9fb0b0c       0x5c lib/libfdt/libfdt.o
                0xe9fb0b0c                fdt_get_alias_namelen
 .text.fdt_path_offset
                0xe9fb0b68       0xf8 lib/libfdt/libfdt.o
                0xe9fb0b68                fdt_path_offset
 .text.fdt_get_alias
                0xe9fb0c60       0x3c lib/libfdt/libfdt.o
                0xe9fb0c60                fdt_get_alias
 .text.fdt_get_path
                0xe9fb0c9c      0x14c lib/libfdt/libfdt.o
                0xe9fb0c9c                fdt_get_path
 .text.fdt_supernode_atdepth_offset
                0xe9fb0de8       0xc8 lib/libfdt/libfdt.o
                0xe9fb0de8                fdt_supernode_atdepth_offset
 .text.fdt_node_depth
                0xe9fb0eb0       0x40 lib/libfdt/libfdt.o
                0xe9fb0eb0                fdt_node_depth
 .text.fdt_parent_offset
                0xe9fb0ef0       0x48 lib/libfdt/libfdt.o
                0xe9fb0ef0                fdt_parent_offset
 .text.fdt_node_offset_by_prop_value
                0xe9fb0f38       0xa0 lib/libfdt/libfdt.o
                0xe9fb0f38                fdt_node_offset_by_prop_value
 .text.fdt_node_offset_by_phandle
                0xe9fb0fd8       0x80 lib/libfdt/libfdt.o
                0xe9fb0fd8                fdt_node_offset_by_phandle
 .text.fdt_node_check_compatible
                0xe9fb1058       0xb0 lib/libfdt/libfdt.o
                0xe9fb1058                fdt_node_check_compatible
 .text.fdt_node_offset_by_compatible
                0xe9fb1108       0x7c lib/libfdt/libfdt.o
                0xe9fb1108                fdt_node_offset_by_compatible
 .text._fdt_packblocks
                0xe9fb1184       0x80 lib/libfdt/libfdt.o
 .text._fdt_splice
                0xe9fb1204       0x7c lib/libfdt/libfdt.o
 .text._fdt_splice_struct
                0xe9fb1280       0x4c lib/libfdt/libfdt.o
 .text._fdt_add_property
                0xe9fb12cc      0x110 lib/libfdt/libfdt.o
 .text._fdt_rw_check_header
                0xe9fb13dc       0xa4 lib/libfdt/libfdt.o
 .text.fdt_add_mem_rsv
                0xe9fb1480       0xa0 lib/libfdt/libfdt.o
                0xe9fb1480                fdt_add_mem_rsv
 .text.fdt_del_mem_rsv
                0xe9fb1520       0x90 lib/libfdt/libfdt.o
                0xe9fb1520                fdt_del_mem_rsv
 .text.fdt_set_name
                0xe9fb15b0       0xa0 lib/libfdt/libfdt.o
                0xe9fb15b0                fdt_set_name
 .text.fdt_setprop
                0xe9fb1650       0xd8 lib/libfdt/libfdt.o
                0xe9fb1650                fdt_setprop
 .text.fdt_delprop
                0xe9fb1728       0x68 lib/libfdt/libfdt.o
                0xe9fb1728                fdt_delprop
 .text.fdt_add_subnode_namelen
                0xe9fb1790      0x108 lib/libfdt/libfdt.o
                0xe9fb1790                fdt_add_subnode_namelen
 .text.fdt_add_subnode
                0xe9fb1898       0x44 lib/libfdt/libfdt.o
                0xe9fb1898                fdt_add_subnode
 .text.fdt_del_node
                0xe9fb18dc       0x70 lib/libfdt/libfdt.o
                0xe9fb18dc                fdt_del_node
 .text.fdt_open_into
                0xe9fb194c      0x1b8 lib/libfdt/libfdt.o
                0xe9fb194c                fdt_open_into
 .text.fdt_strerror
                0xe9fb1b04       0x6c lib/libfdt/libfdt.o
                0xe9fb1b04                fdt_strerror
 .text.fdt_setprop_inplace
                0xe9fb1b70       0x58 lib/libfdt/libfdt.o
                0xe9fb1b70                fdt_setprop_inplace
 .text._fdt_node_end_offset
                0xe9fb1bc8       0x54 lib/libfdt/libfdt.o
                0xe9fb1bc8                _fdt_node_end_offset
 .text.addrmap_virt_to_phys
                0xe9fb1c1c       0xc4 lib/libgeneric.o
                0xe9fb1c1c                addrmap_virt_to_phys
 .text.addrmap_phys_to_virt
                0xe9fb1ce0       0xc4 lib/libgeneric.o
                0xe9fb1ce0                addrmap_phys_to_virt
 .text.addrmap_set_entry
                0xe9fb1da4       0x4c lib/libgeneric.o
                0xe9fb1da4                addrmap_set_entry
 .text.cyg_crc16
                0xe9fb1df0       0x74 lib/libgeneric.o
                0xe9fb1df0                cyg_crc16
 .text.crc32_no_comp
                0xe9fb1e64      0x13c lib/libgeneric.o
                0xe9fb1e64                crc32_no_comp
 .text.crc32    0xe9fb1fa0       0x28 lib/libgeneric.o
                0xe9fb1fa0                crc32
 .text.crc32_wd
                0xe9fb1fc8       0x20 lib/libgeneric.o
                0xe9fb1fc8                crc32_wd
 .text.display_options
                0xe9fb1fe8       0x30 lib/libgeneric.o
                0xe9fb1fe8                display_options
 .text.print_size
                0xe9fb2018      0x130 lib/libgeneric.o
                0xe9fb2018                print_size
 .text.print_buffer
                0xe9fb2148      0x18c lib/libgeneric.o
                0xe9fb2148                print_buffer
 .text.__div64_32
                0xe9fb22d4       0xfc lib/libgeneric.o
                0xe9fb22d4                __div64_32
 .text.gzfree   0xe9fb23d0       0x24 lib/libgeneric.o
                0xe9fb23d0                gzfree
 .text.gzalloc  0xe9fb23f4       0x2c lib/libgeneric.o
                0xe9fb23f4                gzalloc
 .text.zunzip   0xe9fb2420      0x118 lib/libgeneric.o
                0xe9fb2420                zunzip
 .text.gunzip   0xe9fb2538       0xc0 lib/libgeneric.o
                0xe9fb2538                gunzip
 .text.cmpkey   0xe9fb25f8       0x30 lib/libgeneric.o
 .text._hdelete.isra.1
                0xe9fb2628       0x5c lib/libgeneric.o
 .text.drop_var_from_set.part.2
                0xe9fb2684       0x68 lib/libgeneric.o
 .text.hcreate_r
                0xe9fb26ec       0xbc lib/libgeneric.o
                0xe9fb26ec                hcreate_r
 .text.hdestroy_r
                0xe9fb27a8       0x80 lib/libgeneric.o
                0xe9fb27a8                hdestroy_r
 .text.hstrstr_r
                0xe9fb2828       0xc0 lib/libgeneric.o
                0xe9fb2828                hstrstr_r
 .text.hmatch_r
                0xe9fb28e8       0xb4 lib/libgeneric.o
                0xe9fb28e8                hmatch_r
 .text.hsearch_r
                0xe9fb299c      0x494 lib/libgeneric.o
                0xe9fb299c                hsearch_r
 .text.hdelete_r
                0xe9fb2e30      0x10c lib/libgeneric.o
                0xe9fb2e30                hdelete_r
 .text.hexport_r
                0xe9fb2f3c      0x2ac lib/libgeneric.o
                0xe9fb2f3c                hexport_r
 .text.himport_r
                0xe9fb31e8      0x334 lib/libgeneric.o
                0xe9fb31e8                himport_r
 .text.hwalk_r  0xe9fb351c       0x68 lib/libgeneric.o
                0xe9fb351c                hwalk_r
 .text.skip_spaces
                0xe9fb3584       0x40 lib/libgeneric.o
                0xe9fb3584                skip_spaces
 .text.strim    0xe9fb35c4       0x6c lib/libgeneric.o
                0xe9fb35c4                strim
 .text.lmb_add_region
                0xe9fb3630      0x318 lib/libgeneric.o
 .text.lmb_init
                0xe9fb3948       0x48 lib/libgeneric.o
                0xe9fb3948                lmb_init
 .text.lmb_add  0xe9fb3990        0x4 lib/libgeneric.o
                0xe9fb3990                lmb_add
 .text.lmb_free
                0xe9fb3994      0x1c4 lib/libgeneric.o
                0xe9fb3994                lmb_free
 .text.lmb_reserve
                0xe9fb3b58        0x8 lib/libgeneric.o
                0xe9fb3b58                lmb_reserve
 .text.lmb_overlaps_region
                0xe9fb3b60       0xa4 lib/libgeneric.o
                0xe9fb3b60                lmb_overlaps_region
 .text.__lmb_alloc_base
                0xe9fb3c04      0x218 lib/libgeneric.o
                0xe9fb3c04                __lmb_alloc_base
 .text.lmb_alloc_base
                0xe9fb3e1c       0x54 lib/libgeneric.o
                0xe9fb3e1c                lmb_alloc_base
 .text.lmb_alloc
                0xe9fb3e70       0x28 lib/libgeneric.o
                0xe9fb3e70                lmb_alloc
 .text.__board_lmb_reserve
                0xe9fb3e98        0x4 lib/libgeneric.o
                0xe9fb3e98                board_lmb_reserve
                0xe9fb3e98                __board_lmb_reserve
 .text.byteReverse
                0xe9fb3e9c       0x3c lib/libgeneric.o
 .text.MD5Transform
                0xe9fb3ed8      0x900 lib/libgeneric.o
 .text.MD5Update
                0xe9fb47d8      0x104 lib/libgeneric.o
 .text.MD5Final
                0xe9fb48dc       0xd8 lib/libgeneric.o
 .text.md5_wd   0xe9fb49b4       0x80 lib/libgeneric.o
                0xe9fb49b4                md5_wd
 .text.string_to_ip
                0xe9fb4a34       0x84 lib/libgeneric.o
                0xe9fb4a34                string_to_ip
 .text.qsort    0xe9fb4ab8       0xd4 lib/libgeneric.o
                0xe9fb4ab8                qsort
 .text.strcmp_compar
                0xe9fb4b8c       0x28 lib/libgeneric.o
                0xe9fb4b8c                strcmp_compar
 .text.sha1_process
                0xe9fb4bb4     0x1304 lib/libgeneric.o
 .text.sha1_starts
                0xe9fb5eb8       0x4c lib/libgeneric.o
                0xe9fb5eb8                sha1_starts
 .text.sha1_update
                0xe9fb5f04       0xd0 lib/libgeneric.o
                0xe9fb5f04                sha1_update
 .text.sha1_finish
                0xe9fb5fd4      0x15c lib/libgeneric.o
                0xe9fb5fd4                sha1_finish
 .text.sha1_csum_wd
                0xe9fb6130       0x48 lib/libgeneric.o
                0xe9fb6130                sha1_csum_wd
 .text.strncat  0xe9fb6178       0x5c lib/libgeneric.o
                0xe9fb6178                strncat
 .text.strncmp  0xe9fb61d4       0x40 lib/libgeneric.o
                0xe9fb61d4                strncmp
 .text.strchr   0xe9fb6214       0x2c lib/libgeneric.o
                0xe9fb6214                strchr
 .text.strrchr  0xe9fb6240       0x48 lib/libgeneric.o
                0xe9fb6240                strrchr
 .text.strnlen  0xe9fb6288       0x2c lib/libgeneric.o
                0xe9fb6288                strnlen
 .text.strdup   0xe9fb62b4       0x44 lib/libgeneric.o
                0xe9fb62b4                strdup
 .text.strpbrk  0xe9fb62f8       0x3c lib/libgeneric.o
                0xe9fb62f8                strpbrk
 .text.strstr   0xe9fb6334       0x70 lib/libgeneric.o
                0xe9fb6334                strstr
 .text.strmhz   0xe9fb63a4       0x70 lib/libgeneric.o
                0xe9fb63a4                strmhz
 .text.udelay   0xe9fb6414       0x48 lib/libgeneric.o
                0xe9fb6414                udelay
 .text.put_dec_trunc
                0xe9fb645c       0xec lib/libgeneric.o
 .text.put_dec  0xe9fb6548      0x134 lib/libgeneric.o
 .text.string.isra.0
                0xe9fb667c      0x104 lib/libgeneric.o
 .text.number.isra.4
                0xe9fb6780      0x318 lib/libgeneric.o
 .text.simple_strtoul
                0xe9fb6a98       0xe4 lib/libgeneric.o
                0xe9fb6a98                simple_strtoul
 .text.strict_strtoul
                0xe9fb6b7c       0x88 lib/libgeneric.o
                0xe9fb6b7c                strict_strtoul
 .text.simple_strtol
                0xe9fb6c04       0x3c lib/libgeneric.o
                0xe9fb6c04                simple_strtol
 .text.simple_strtoull
                0xe9fb6c40      0x118 lib/libgeneric.o
                0xe9fb6c40                simple_strtoull
 .text.vsprintf
                0xe9fb6d58      0x870 lib/libgeneric.o
                0xe9fb6d58                vsprintf
 .text.sprintf  0xe9fb75c8       0x5c lib/libgeneric.o
                0xe9fb75c8                sprintf
 .text.panic    0xe9fb7624       0x5c lib/libgeneric.o
                0xe9fb7624                panic
 .text.zcfree   0xe9fb7680       0x24 lib/zlib/libz.o
                0xe9fb7680                zcfree
 .text.zcalloc  0xe9fb76a4       0x24 lib/zlib/libz.o
                0xe9fb76a4                zcalloc
 .text.inflate_fast
                0xe9fb76c8      0x528 lib/zlib/libz.o
                0xe9fb76c8                inflate_fast
 .text.inflate_table
                0xe9fb7bf0      0x4f4 lib/zlib/libz.o
                0xe9fb7bf0                inflate_table
 .text.inflateReset
                0xe9fb80e4       0x80 lib/zlib/libz.o
                0xe9fb80e4                inflateReset
 .text.inflateInit2_
                0xe9fb8164      0x12c lib/zlib/libz.o
                0xe9fb8164                inflateInit2_
 .text.inflateEnd
                0xe9fb8290       0x84 lib/zlib/libz.o
                0xe9fb8290                inflateEnd
 .text.adler32  0xe9fb8314      0x2f8 lib/zlib/libz.o
                0xe9fb8314                adler32
 .text.inflate  0xe9fb860c     0x1710 lib/zlib/libz.o
                0xe9fb860c                inflate
 .text.ArpInit  0xe9fb9d1c       0x5c net/libnet.o
                0xe9fb9d1c                ArpInit
 .text.arp_raw_request
                0xe9fb9d78       0xc8 net/libnet.o
                0xe9fb9d78                arp_raw_request
 .text.ArpRequest
                0xe9fb9e40       0x80 net/libnet.o
                0xe9fb9e40                ArpRequest
 .text.ArpTimeoutCheck
                0xe9fb9ec0       0x84 net/libnet.o
                0xe9fb9ec0                ArpTimeoutCheck
 .text.ArpReceive
                0xe9fb9f44      0x1e8 net/libnet.o
                0xe9fb9f44                ArpReceive
 .text.DhcpExtended
                0xe9fba12c      0x114 net/libnet.o
 .text.DhcpOptionsProcess
                0xe9fba240      0x230 net/libnet.o
 .text.DhcpHandler
                0xe9fba470      0x344 net/libnet.o
 .text.BootpRequest
                0xe9fba7b4      0x1c8 net/libnet.o
                0xe9fba7b4                BootpRequest
 .text.BootpTimeout
                0xe9fba97c       0x50 net/libnet.o
 .text.DhcpRequest
                0xe9fba9cc       0x20 net/libnet.o
                0xe9fba9cc                DhcpRequest
 .text.__def_eth_init
                0xe9fba9ec        0x8 net/libnet.o
 .text.eth_current_changed
                0xe9fba9f4       0x70 net/libnet.o
 .text.eth_parse_enetaddr
                0xe9fbaa64       0x6c net/libnet.o
                0xe9fbaa64                eth_parse_enetaddr
 .text.eth_getenv_enetaddr
                0xe9fbaad0       0x70 net/libnet.o
                0xe9fbaad0                eth_getenv_enetaddr
 .text.eth_setenv_enetaddr
                0xe9fbab40       0x40 net/libnet.o
                0xe9fbab40                eth_setenv_enetaddr
 .text.eth_getenv_enetaddr_by_index
                0xe9fbab80       0x54 net/libnet.o
                0xe9fbab80                eth_getenv_enetaddr_by_index
 .text.eth_get_dev_index
                0xe9fbabd4       0x3c net/libnet.o
                0xe9fbabd4                eth_get_dev_index
 .text.eth_write_hwaddr
                0xe9fbac10      0x1dc net/libnet.o
                0xe9fbac10                eth_write_hwaddr
 .text.eth_register
                0xe9fbadec       0x90 net/libnet.o
                0xe9fbadec                eth_register
 .text.eth_initialize
                0xe9fbae7c      0x1cc net/libnet.o
                0xe9fbae7c                eth_initialize
 .text.eth_halt
                0xe9fbb048       0x48 net/libnet.o
                0xe9fbb048                eth_halt
 .text.eth_send
                0xe9fbb090       0x50 net/libnet.o
                0xe9fbb090                eth_send
 .text.eth_rx   0xe9fbb0e0       0x44 net/libnet.o
                0xe9fbb0e0                eth_rx
 .text.eth_try_another
                0xe9fbb124       0x90 net/libnet.o
                0xe9fbb124                eth_try_another
 .text.eth_init
                0xe9fbb1b4       0xd4 net/libnet.o
                0xe9fbb1b4                eth_init
 .text.eth_set_current
                0xe9fbb288       0xc4 net/libnet.o
                0xe9fbb288                eth_set_current
 .text.eth_get_name
                0xe9fbb34c       0x3c net/libnet.o
                0xe9fbb34c                eth_get_name
 .text.startAgainTimeout
                0xe9fbb388       0x30 net/libnet.o
 .text.dummy_handler
                0xe9fbb3b8        0x4 net/libnet.o
 .text.net_auto_load
                0xe9fbb3bc       0x70 net/libnet.o
                0xe9fbb3bc                net_auto_load
 .text.net_set_udp_handler
                0xe9fbb42c       0x38 net/libnet.o
                0xe9fbb42c                net_set_udp_handler
 .text.net_get_arp_handler
                0xe9fbb464       0x2c net/libnet.o
                0xe9fbb464                net_get_arp_handler
 .text.net_set_arp_handler
                0xe9fbb490       0x38 net/libnet.o
                0xe9fbb490                net_set_arp_handler
 .text.NetSetTimeout
                0xe9fbb4c8       0x54 net/libnet.o
                0xe9fbb4c8                NetSetTimeout
 .text.NetStartAgain
                0xe9fbb51c      0x120 net/libnet.o
                0xe9fbb51c                NetStartAgain
 .text.net_clear_handlers
                0xe9fbb63c       0x38 net/libnet.o
 .text.NetCksum
                0xe9fbb674       0x48 net/libnet.o
                0xe9fbb674                NetCksum
 .text.NetCksumOk
                0xe9fbb6bc       0x30 net/libnet.o
                0xe9fbb6bc                NetCksumOk
 .text.NetReceive
                0xe9fbb6ec      0x21c net/libnet.o
                0xe9fbb6ec                NetReceive
 .text.NetEthHdrSize
                0xe9fbb908       0x50 net/libnet.o
                0xe9fbb908                NetEthHdrSize
 .text.NetSetEther
                0xe9fbb958       0x88 net/libnet.o
                0xe9fbb958                NetSetEther
 .text.net_update_ether
                0xe9fbb9e0       0x78 net/libnet.o
                0xe9fbb9e0                net_update_ether
 .text.net_set_ip_header
                0xe9fbba58       0x90 net/libnet.o
                0xe9fbba58                net_set_ip_header
 .text.net_set_udp_header
                0xe9fbbae8       0x90 net/libnet.o
                0xe9fbbae8                net_set_udp_header
 .text.NetSendUDPPacket
                0xe9fbbb78      0x100 net/libnet.o
                0xe9fbbb78                NetSendUDPPacket
 .text.copy_filename
                0xe9fbbc78       0x5c net/libnet.o
                0xe9fbbc78                copy_filename
 .text.on_bootfile
                0xe9fbbcd4       0x40 net/libnet.o
 .text.ip_to_string
                0xe9fbbd14       0x40 net/libnet.o
                0xe9fbbd14                ip_to_string
 .text.string_to_VLAN
                0xe9fbbd54       0x50 net/libnet.o
                0xe9fbbd54                string_to_VLAN
 .text.getenv_VLAN
                0xe9fbbda4       0x24 net/libnet.o
                0xe9fbbda4                getenv_VLAN
 .text.NetInitLoop
                0xe9fbbdc8       0xc4 net/libnet.o
 .text.net_init
                0xe9fbbe8c       0x84 net/libnet.o
                0xe9fbbe8c                net_init
 .text.NetLoop  0xe9fbbf10      0x308 net/libnet.o
                0xe9fbbf10                NetLoop
 .text.basename
                0xe9fbc218       0x50 net/libnet.o
 .text.rpc_add_credentials
                0xe9fbc268       0xb4 net/libnet.o
 .text.rpc_lookup_reply
                0xe9fbc31c       0x9c net/libnet.o
 .text.nfs_mount_reply
                0xe9fbc3b8       0x9c net/libnet.o
 .text.nfs_umountall_reply
                0xe9fbc454       0x8c net/libnet.o
 .text.nfs_lookup_reply
                0xe9fbc4e0       0x90 net/libnet.o
 .text.rpc_req  0xe9fbc570       0xd8 net/libnet.o
 .text.rpc_lookup_req
                0xe9fbc648       0x5c net/libnet.o
 .text.nfs_mount_req
                0xe9fbc6a4       0x90 net/libnet.o
 .text.nfs_umountall_req
                0xe9fbc734       0x68 net/libnet.o
 .text.nfs_lookup_req
                0xe9fbc79c       0xa8 net/libnet.o
 .text.nfs_read_req
                0xe9fbc844       0x74 net/libnet.o
 .text.nfs_readlink_req
                0xe9fbc8b8       0x5c net/libnet.o
 .text.nfs_readlink_reply
                0xe9fbc914       0xe4 net/libnet.o
 .text.NfsSend  0xe9fbc9f8       0xd4 net/libnet.o
 .text.nfs_read_reply.isra.1
                0xe9fbcacc      0x12c net/libnet.o
 .text.NfsHandler
                0xe9fbcbf8      0x1f4 net/libnet.o
 .text.NfsTimeout
                0xe9fbcdec       0x6c net/libnet.o
 .text.NfsStart
                0xe9fbce58      0x214 net/libnet.o
                0xe9fbce58                NfsStart
 .text.ping_timeout
                0xe9fbd06c       0x30 net/libnet.o
 .text.ping_start
                0xe9fbd09c      0x114 net/libnet.o
                0xe9fbd09c                ping_start
 .text.ping_receive
                0xe9fbd1b0       0xf8 net/libnet.o
                0xe9fbd1b0                ping_receive
 .text.TftpSend
                0xe9fbd2a8      0x180 net/libnet.o
 .text.TftpTimeout
                0xe9fbd428       0x90 net/libnet.o
 .text.TftpHandler
                0xe9fbd4b8      0x340 net/libnet.o
 .text.TftpStart
                0xe9fbd7f8      0x2cc net/libnet.o
                0xe9fbd7f8                TftpStart
 .text.__post_hotkeys_pressed
                0xe9fbdac4        0x8 post/libpost.o
                0xe9fbdac4                post_hotkeys_pressed
                0xe9fbdac4                __post_hotkeys_pressed
 .text.post_bootmode_get
                0xe9fbdacc       0x50 post/libpost.o
                0xe9fbdacc                post_bootmode_get
 .text.post_bootmode_init
                0xe9fbdb1c       0xb8 post/libpost.o
                0xe9fbdb1c                post_bootmode_init
 .text.__show_post_progress
                0xe9fbdbd4        0x4 post/libpost.o
                0xe9fbdbd4                __show_post_progress
                0xe9fbdbd4                show_post_progress
 .text.post_log
                0xe9fbdbd8       0x74 post/libpost.o
                0xe9fbdbd8                post_log
 .text.post_run_single
                0xe9fbdc4c      0x1e0 post/libpost.o
 .text.post_run
                0xe9fbde2c      0x3b8 post/libpost.o
                0xe9fbde2c                post_run
 .text.post_output_backlog
                0xe9fbe1e4       0x9c post/libpost.o
                0xe9fbe1e4                post_output_backlog
 .text.post_time_ms
                0xe9fbe280       0x60 post/libpost.o
                0xe9fbe280                post_time_ms
 .text.post_init_f
                0xe9fbe2e0       0x98 post/libpost.o
                0xe9fbe2e0                post_init_f
 .text.memory_post_addrline
                0xe9fbe378       0x94 post/libpost.o
 .text.memory_post_test_lines
                0xe9fbe40c       0xdc post/libpost.o
 .text.memory_post_test1
                0xe9fbe4e8       0x7c post/libpost.o
 .text.memory_post_test_patterns
                0xe9fbe564      0x1a8 post/libpost.o
 .text.memory_post_test_regions
                0xe9fbe70c       0x6c post/libpost.o
 .text.memory_post_test
                0xe9fbe778       0xdc post/libpost.o
                0xe9fbe778                memory_post_test
 .text.serdes_clock_to_string
                0xe9fbe854       0x58 board/freescale/cxo160/libcxo160.o
 .text.checkboard
                0xe9fbe8ac       0xf0 board/freescale/cxo160/libcxo160.o
                0xe9fbe8ac                checkboard
 .text.board_early_init_f
                0xe9fbe99c       0x30 board/freescale/cxo160/libcxo160.o
                0xe9fbe99c                board_early_init_f
 .text.board_config_lanes_mux
                0xe9fbe9cc       0x64 board/freescale/cxo160/libcxo160.o
                0xe9fbe9cc                board_config_lanes_mux
 .text.board_early_init_r
                0xe9fbea30       0x80 board/freescale/cxo160/libcxo160.o
                0xe9fbea30                board_early_init_r
 .text.get_board_sys_clk
                0xe9fbeab0       0x30 board/freescale/cxo160/libcxo160.o
                0xe9fbeab0                get_board_sys_clk
 .text.misc_init_r
                0xe9fbeae0       0xb4 board/freescale/cxo160/libcxo160.o
                0xe9fbeae0                misc_init_r
 .text.ft_board_setup
                0xe9fbeb94       0x64 board/freescale/cxo160/libcxo160.o
                0xe9fbeb94                ft_board_setup
 .text.fixed_sdram
                0xe9fbebf8      0x134 board/freescale/cxo160/libcxo160.o
                0xe9fbebf8                fixed_sdram
 .text.initdram
                0xe9fbed2c       0x50 board/freescale/cxo160/libcxo160.o
                0xe9fbed2c                initdram
 .text.board_ft_fman_fixup_port
                0xe9fbed7c       0xc0 board/freescale/cxo160/libcxo160.o
                0xe9fbed7c                board_ft_fman_fixup_port
 .text.board_eth_init
                0xe9fbee3c      0x154 board/freescale/cxo160/libcxo160.o
                0xe9fbee3c                board_eth_init
 .text          0xe9fbef90       0x44 /opt/fsl/1.2/sysroots/ppce500mc-fsl-linux/usr/lib/powerpc-fsl-linux/4.6.2/libgcc.a(_lshrdi3.o)
                0xe9fbef90                __lshrdi3
 *fill*         0xe9fbefd4        0xc 00
 .text          0xe9fbefe0       0x44 /opt/fsl/1.2/sysroots/ppce500mc-fsl-linux/usr/lib/powerpc-fsl-linux/4.6.2/libgcc.a(_ashldi3.o)
                0xe9fbefe0                __ashldi3
 .text          0xe9fbf024       0x4c /opt/fsl/1.2/sysroots/ppce500mc-fsl-linux/usr/lib/powerpc-fsl-linux/4.6.2/libgcc.a(crtsavgpr.o)
                0xe9fbf024                _savegpr_14
                0xe9fbf028                _savegpr_15
                0xe9fbf02c                _savegpr_16
                0xe9fbf030                _savegpr_17
                0xe9fbf034                _savegpr_18
                0xe9fbf038                _savegpr_19
                0xe9fbf03c                _savegpr_20
                0xe9fbf040                _savegpr_21
                0xe9fbf044                _savegpr_22
                0xe9fbf048                _savegpr_23
                0xe9fbf04c                _savegpr_24
                0xe9fbf050                _savegpr_25
                0xe9fbf054                _savegpr_26
                0xe9fbf058                _savegpr_27
                0xe9fbf05c                _savegpr_28
                0xe9fbf060                _savegpr_29
                0xe9fbf064                _savegpr_30
                0xe9fbf068                _savegpr_31
 .text          0xe9fbf070       0x58 /opt/fsl/1.2/sysroots/ppce500mc-fsl-linux/usr/lib/powerpc-fsl-linux/4.6.2/libgcc.a(crtresxgpr.o)
                0xe9fbf070                _restgpr_14_x
                0xe9fbf074                _restgpr_15_x
                0xe9fbf078                _restgpr_16_x
                0xe9fbf07c                _restgpr_17_x
                0xe9fbf080                _restgpr_18_x
                0xe9fbf084                _restgpr_19_x
                0xe9fbf088                _restgpr_20_x
                0xe9fbf08c                _restgpr_21_x
                0xe9fbf090                _restgpr_22_x
                0xe9fbf094                _restgpr_23_x
                0xe9fbf098                _restgpr_24_x
                0xe9fbf09c                _restgpr_25_x
                0xe9fbf0a0                _restgpr_26_x
                0xe9fbf0a4                _restgpr_27_x
                0xe9fbf0a8                _restgpr_28_x
                0xe9fbf0ac                _restgpr_29_x
                0xe9fbf0b0                _restgpr_30_x
                0xe9fbf0b4                _restgpr_31_x
                0xe9fbf0c8                _etext = .
                0xe9fbf0c8                PROVIDE (etext, .)

.glink          0xe9fbf0c8        0x0
 .glink         0x00000000        0x0 arch/powerpc/cpu/mpc85xx/start.o

.rodata         0xe9fbf0c8     0xd8d6
 *(SORT(.rodata*))
 .rodata.pattern
                0xe9fbf0c8       0x60 post/libpost.o
 .rodata        0xe9fbf128       0x30 drivers/rtc/librtc.o
 .rodata        0xe9fbf158       0x10 post/libpost.o
 .rodata.CSWTCH.34
                0xe9fbf168       0x16 common/libcommon.o
 *fill*         0xe9fbf17e        0x2 00
 .rodata.NetLoop
                0xe9fbf180       0x58 net/libnet.o
 .rodata.NfsHandler
                0xe9fbf1d8       0x1c net/libnet.o
 .rodata.NfsSend
                0xe9fbf1f4       0x1c net/libnet.o
 .rodata.TftpSend
                0xe9fbf210       0x1c net/libnet.o
 .rodata.__FUNCTION__.6242
                0xe9fbf22c       0x18 arch/powerpc/cpu/mpc85xx/libmpc85xx.o
 .rodata.__FUNCTION__.6316
                0xe9fbf244       0x17 common/libcommon.o
 *fill*         0xe9fbf25b        0x1 00
 .rodata.__FUNCTION__.6473
                0xe9fbf25c       0x17 common/libcommon.o
 *fill*         0xe9fbf273        0x1 00
 .rodata.__func__.6080
                0xe9fbf274        0xf fs/ext4/libext4fs.o
 *fill*         0xe9fbf283        0x1 00
 .rodata.__func__.6115
                0xe9fbf284        0x8 common/libcommon.o
 .rodata.__func__.6121
                0xe9fbf28c        0x8 arch/powerpc/cpu/mpc85xx/libmpc85xx.o
 .rodata.__func__.6125
                0xe9fbf294       0x11 arch/powerpc/cpu/mpc85xx/libmpc85xx.o
 *fill*         0xe9fbf2a5        0x3 00
 .rodata.__func__.6131
                0xe9fbf2a8       0x10 common/libcommon.o
 .rodata.__func__.6142
                0xe9fbf2b8        0xb common/libcommon.o
 *fill*         0xe9fbf2c3        0x1 00
 .rodata.__func__.6319
                0xe9fbf2c4        0xe common/libcommon.o
 *fill*         0xe9fbf2d2        0x2 00
 .rodata.__func__.6353
                0xe9fbf2d4        0xe common/libcommon.o
 *fill*         0xe9fbf2e2        0x2 00
 .rodata.__func__.6628
                0xe9fbf2e4        0xa arch/powerpc/cpu/mpc85xx/libmpc85xx.o
 *fill*         0xe9fbf2ee        0x2 00
 .rodata.__func__.6737
                0xe9fbf2f0        0xf drivers/net/fm/libfm.o
 *fill*         0xe9fbf2ff        0x1 00
 .rodata.__func__.6809
                0xe9fbf300        0xc drivers/net/fm/libfm.o
 .rodata.__func__.7185
                0xe9fbf30c        0xc drivers/net/fm/libfm.o
 .rodata._ctype
                0xe9fbf318      0x100 lib/libgeneric.o
                0xe9fbf318                _ctype
 .rodata.baudrate_table
                0xe9fbf418       0x28 drivers/serial/libserial.o
 .rodata.binary_test
                0xe9fbf440       0x30 common/libcommon.o
 .rodata.bitpattern.6024
                0xe9fbf470       0x20 common/libcommon.o
 .rodata.crc_table
                0xe9fbf490      0x400 lib/libgeneric.o
 .rodata.default_environment
                0xe9fbf890      0x218 common/libcommon.o
                0xe9fbf890                default_environment
 .rodata.delims.6003
                0xe9fbfaa8        0x3 common/libcommon.o
 *fill*         0xe9fbfaab        0x1 00
 .rodata.dev_print
                0xe9fbfaac       0x44 disk/libdisk.o
 .rodata.devdisr_mask
                0xe9fbfaf0       0x10 drivers/pci/libpci.o
 .rodata.do_fdt
                0xe9fbfb00       0x24 common/libcommon.o
 .rodata.do_itest
                0xe9fbfb24       0x1c common/libcommon.o
 .rodata.dtsec_set_interface_mode
                0xe9fbfb40       0x18 drivers/net/fm/libfm.o
 .rodata.env_flags_validate
                0xe9fbfb58       0x18 common/libcommon.o
 .rodata.env_flags_varaccess_mask
                0xe9fbfb70       0x10 common/libcommon.o
 .rodata.env_flags_varaccess_rep
                0xe9fbfb80        0x5 common/libcommon.o
 *fill*         0xe9fbfb85        0x3 00
 .rodata.env_flags_vartype_rep
                0xe9fbfb88        0x7 common/libcommon.o
 *fill*         0xe9fbfb8f        0x1 00
 .rodata.erase_seq
                0xe9fbfb90        0x4 common/libcommon.o
 .rodata.ext_csd_bits.6406
                0xe9fbfb94        0xc drivers/mmc/libmmc.o
 .rodata.ext_to_hostcaps.6407
                0xe9fbfba0        0xc drivers/mmc/libmmc.o
 .rodata.fbase  0xe9fbfbac       0x10 drivers/mmc/libmmc.o
 .rodata.fdt_next_tag
                0xe9fbfbbc       0x24 lib/libfdt/libfdt.o
 .rodata.fdt_set_node_status
                0xe9fbfbe0       0x10 common/libcommon.o
 .rodata.file_fat_detectfs
                0xe9fbfbf0       0x20 fs/fat/libfat.o
 .rodata.flash_add_byte.isra.5
                0xe9fbfc10       0x20 drivers/mtd/libmtd.o
 .rodata.flash_isequal
                0xe9fbfc30       0x20 drivers/mtd/libmtd.o
 .rodata.flash_isset
                0xe9fbfc50       0x20 drivers/mtd/libmtd.o
 .rodata.flash_offset_cfi
                0xe9fbfc70        0x8 drivers/mtd/libmtd.o
 .rodata.flash_status_check
                0xe9fbfc78       0x20 drivers/mtd/libmtd.o
 .rodata.flash_write_cfiword
                0xe9fbfc98       0x40 drivers/mtd/libmtd.o
 .rodata.flash_write_cmd
                0xe9fbfcd8       0x20 drivers/mtd/libmtd.o
 .rodata.get_partition_info_extended.constprop.2
                0xe9fbfcf8       0x20 disk/libdisk.o
 .rodata.i2c_dev
                0xe9fbfd18        0x8 drivers/i2c/libi2c.o
 .rodata.inflate
                0xe9fbfd20       0x74 lib/zlib/libz.o
 .rodata.lane_to_slot
                0xe9fbfd94       0x12 board/freescale/cxo160/libcxo160.o
 *fill*         0xe9fbfda6        0x2 00
 .rodata.lanes  0xe9fbfda8       0xd8 arch/powerpc/cpu/mpc85xx/libmpc85xx.o
 .rodata.load_serial
                0xe9fbfe80       0x24 common/libcommon.o
 .rodata.mmc_startup
                0xe9fbfea4       0x14 drivers/mmc/libmmc.o
 .rodata.multipliers
                0xe9fbfeb8       0x40 drivers/mmc/libmmc.o
 .rodata.names.5905
                0xe9fbfef8        0x6 lib/libgeneric.o
 *fill*         0xe9fbfefe        0x2 00
 .rodata.offsets.5908
                0xe9fbff00        0x6 arch/powerpc/cpu/mpc85xx/libmpc85xx.o
 *fill*         0xe9fbff06        0x2 00
 .rodata.port_to_devdisr
                0xe9fbff08       0x24 drivers/net/fm/libfm.o
 .rodata.print_part
                0xe9fbff2c       0x20 disk/libdisk.o
 .rodata.readline_into_buffer
                0xe9fbff4c       0x20 common/libcommon.o
 .rodata.serial_ports
                0xe9fbff6c       0x18 drivers/serial/libserial.o
 .rodata.sha1_padding
                0xe9fbff84       0x40 lib/libgeneric.o
 .rodata.srec_decode
                0xe9fbffc4       0x28 common/libcommon.o
 .rodata.tab_seq
                0xe9fbffec        0x9 common/libcommon.o
 *fill*         0xe9fbfff5        0x3 00
 .rodata.widths.6408
                0xe9fbfff8        0xc drivers/mmc/libmmc.o
 .rodata.write_buff
                0xe9fc0004       0x80 drivers/mtd/libmtd.o
 .rodata.xyzModem_error
                0xe9fc0084       0x20 common/libcommon.o
 .rodata.caam_eras.6530
                0xe9fc00a4       0x34 arch/powerpc/cpu/mpc8xxx/lib8xxx.o
 .rodata.crc16_tab
                0xe9fc00d8      0x200 lib/libgeneric.o
 .rodata.dbase.6248
                0xe9fc02d8       0x40 lib/zlib/libz.o
 .rodata.dext.6249
                0xe9fc0318       0x40 lib/zlib/libz.o
 .rodata.distfix
                0xe9fc0358       0x80 lib/zlib/libz.o
 .rodata.lbase.6246
                0xe9fc03d8       0x3e lib/zlib/libz.o
 .rodata.lenfix
                0xe9fc0416      0x800 lib/zlib/libz.o
 .rodata.lext.6247
                0xe9fc0c16       0x3e lib/zlib/libz.o
 .rodata.order.6342
                0xe9fc0c54       0x26 lib/zlib/libz.o
 .rodata        0xe9fc0c7a      0x22b common/libcommon.o
 .rodata        0xe9fc0ea5       0x11 lib/libgeneric.o
 .rodata        0xe9fc0eb6        0xe net/libnet.o
 .rodata.serdes_cfg_tbl
                0xe9fc0ec4      0x20a arch/powerpc/cpu/mpc85xx/libmpc85xx.o
 .rodata.str1.1
                0xe9fc10ce     0x152d arch/powerpc/cpu/mpc85xx/libmpc85xx.o
                               0x15f2 (size before relaxing)
 .rodata.str1.1
                0xe9fc25fb      0x704 arch/powerpc/cpu/mpc8xxx/ddr/libddr.o
                                0x72f (size before relaxing)
 .rodata.str1.1
                0xe9fc2cff      0x212 arch/powerpc/cpu/mpc8xxx/lib8xxx.o
                                0x23d (size before relaxing)
 .rodata.str1.1
                0xe9fc2f11      0x165 arch/powerpc/lib/libpowerpc.o
                                0x16f (size before relaxing)
 .rodata.str1.1
                0xe9fc3076        0xb board/freescale/common/libfreescale.o
                                 0x1f (size before relaxing)
 .rodata.str1.1
                0xe9fc3081     0x6e2a common/libcommon.o
                               0x758f (size before relaxing)
 .rodata.str1.1
                0xe9fc9eab      0x3f1 disk/libdisk.o
                                0x420 (size before relaxing)
 .rodata.str1.1
                0xe9fca29c       0x10 drivers/input/libinput.o
                                 0x16 (size before relaxing)
 .rodata.str1.1
                0xe9fca2ac      0x22a drivers/mmc/libmmc.o
                                0x25c (size before relaxing)
 .rodata.str1.1
                0xe9fca4d6      0x353 drivers/mtd/libmtd.o
                                0x38b (size before relaxing)
 .rodata.str1.1
                0xe9fca829      0x268 drivers/net/fm/libfm.o
                                0x283 (size before relaxing)
 .rodata.str1.1
                0xe9fcaa91       0x21 drivers/net/libnet.o
 .rodata.str1.1
                0xe9fcaab2      0x132 drivers/net/phy/libphy.o
                                0x14e (size before relaxing)
 .rodata.str1.1
                0xe9fcabe4      0x482 drivers/pci/libpci.o
                                0x48c (size before relaxing)
 .rodata.str1.1
                0xe9fcb066       0x29 drivers/rtc/librtc.o
 .rodata.str1.1
                0xe9fcb08f       0x57 drivers/serial/libserial.o
                                 0x92 (size before relaxing)
 .rodata.str1.1
                0xe9fcb0e6      0x354 fs/ext4/libext4fs.o
                                0x35b (size before relaxing)
 .rodata.str1.1
                0xe9fcb43a      0x1c1 fs/fat/libfat.o
                                0x1f6 (size before relaxing)
 .rodata.str1.1
                0xe9fcb5fb       0xc0 fs/libfs.o
                                 0xe1 (size before relaxing)
 .rodata.str1.1
                0xe9fcb6bb       0xf1 lib/libfdt/libfdt.o
                                0x11c (size before relaxing)
 .rodata.str1.1
                0xe9fcb7ac      0x1ee lib/libgeneric.o
                                0x201 (size before relaxing)
 .rodata.str1.1
                0xe9fcb99a      0x21c lib/zlib/libz.o
                                0x21d (size before relaxing)
 .rodata.str1.1
                0xe9fcbbb6      0x754 net/libnet.o
                                0x8f8 (size before relaxing)
 .rodata.str1.1
                0xe9fcc30a      0x177 post/libpost.o
                                0x17e (size before relaxing)
 .rodata.str1.1
                0xe9fcc481      0x51d board/freescale/cxo160/libcxo160.o
                                0x529 (size before relaxing)

.rela.dyn       0xe9fcc9a0        0x0
 .rela.iplt     0x00000000        0x0 arch/powerpc/cpu/mpc85xx/start.o
 .rela.text     0x00000000        0x0 arch/powerpc/cpu/mpc85xx/start.o
 .rela.got2     0x00000000        0x0 arch/powerpc/cpu/mpc85xx/start.o
 .rela.got      0x00000000        0x0 arch/powerpc/cpu/mpc85xx/start.o
 .rela.data.rel.init_sequence
                0x00000000        0x0 arch/powerpc/cpu/mpc85xx/start.o
 .rela.data.rel.hash_algo
                0x00000000        0x0 arch/powerpc/cpu/mpc85xx/start.o
 .rela.data.rel.ro.block_drvr
                0x00000000        0x0 arch/powerpc/cpu/mpc85xx/start.o
                0xe9fcca00                . = ((. + 0xff) & 0xffffff00)
                0xe9fcca00                _erotext = .
                0xe9fcca00                PROVIDE (erotext, .)

.reloc          0xe9fcca00     0x31c8
                0xe9fcca00                _GOT2_TABLE_ = .
 *(.got2)
 .got2          0xe9fcca00       0x24 arch/powerpc/cpu/mpc85xx/start.o
 .got2          0xe9fcca24        0x0 /opt/fsl/1.2/sysroots/ppce500mc-fsl-linux/usr/lib/powerpc-fsl-linux/4.6.2/libgcc.a(_lshrdi3.o)
 .got2          0xe9fcca24        0x0 /opt/fsl/1.2/sysroots/ppce500mc-fsl-linux/usr/lib/powerpc-fsl-linux/4.6.2/libgcc.a(_ashldi3.o)
 .got2          0xe9fcca24        0x0 /opt/fsl/1.2/sysroots/ppce500mc-fsl-linux/usr/lib/powerpc-fsl-linux/4.6.2/libgcc.a(_udivdi3.o)
 *(.got)
 .got           0xe9fcca24     0x2150 arch/powerpc/cpu/mpc85xx/start.o
                0xe9fceb68                _GLOBAL_OFFSET_TABLE_
                0xe9fceb78                PROVIDE (_GLOBAL_OFFSET_TABLE_, (. + 0x4))
                0xe9fceb74                _FIXUP_TABLE_ = .
 *(.fixup)
 .fixup         0xe9fceb74       0xac arch/powerpc/cpu/mpc85xx/libmpc85xx.o
 .fixup         0xe9fcec20       0x20 arch/powerpc/cpu/mpc8xxx/ddr/libddr.o
 .fixup         0xe9fcec40       0x34 arch/powerpc/cpu/mpc8xxx/lib8xxx.o
 .fixup         0xe9fcec74       0x38 arch/powerpc/lib/libpowerpc.o
 .fixup         0xe9fcecac      0xdb0 common/libcommon.o
 .fixup         0xe9fcfa5c        0x8 disk/libdisk.o
 .fixup         0xe9fcfa64       0x10 drivers/input/libinput.o
 .fixup         0xe9fcfa74       0x28 drivers/net/phy/libphy.o
 .fixup         0xe9fcfa9c       0x98 drivers/serial/libserial.o
 .fixup         0xe9fcfb34        0xc fs/fat/libfat.o
 .fixup         0xe9fcfb40        0x8 fs/libfs.o
 .fixup         0xe9fcfb48       0x2c lib/libfdt/libfdt.o
 .fixup         0xe9fcfb74       0x28 lib/zlib/libz.o
 .fixup         0xe9fcfb9c        0x8 net/libnet.o
 .fixup         0xe9fcfba4       0x20 post/libpost.o
 .fixup         0xe9fcfbc4        0x4 board/freescale/cxo160/libcxo160.o
                0x00000859                __got2_entries = (((_GLOBAL_OFFSET_TABLE_ - _GOT2_TABLE_) >> 0x2) - 0x1)
                0x00000415                __fixup_entries = ((. - _FIXUP_TABLE_) >> 0x2)

.data           0xe9fcfbc8     0x37ac
 *(.data*)
 .data.qp_info  0xe9fcfbc8       0x50 arch/powerpc/cpu/mpc85xx/libmpc85xx.o
                0xe9fcfbc8                qp_info
 .data.rel.local.fman1_liodn_tbl
                0xe9fcfc18       0xa0 arch/powerpc/cpu/mpc85xx/libmpc85xx.o
                0xe9fcfc18                fman1_liodn_tbl
 .data.rel.local.rman_liodn_tbl
                0xe9fcfcb8       0x80 arch/powerpc/cpu/mpc85xx/libmpc85xx.o
                0xe9fcfcb8                rman_liodn_tbl
 .data.liodn_bases
                0xe9fcfd38       0x80 arch/powerpc/cpu/mpc85xx/libmpc85xx.o
                0xe9fcfd38                liodn_bases
 .data.rel.local.sec_liodn_tbl
                0xe9fcfdb8      0x240 arch/powerpc/cpu/mpc85xx/libmpc85xx.o
                0xe9fcfdb8                sec_liodn_tbl
 .data.rel.local.liodn_tbl
                0xe9fcfff8      0x220 arch/powerpc/cpu/mpc85xx/libmpc85xx.o
                0xe9fcfff8                liodn_tbl
 .data.rel.local.step_string_tbl
                0xe9fd0218       0x20 arch/powerpc/cpu/mpc8xxx/ddr/libddr.o
                0xe9fd0218                step_string_tbl
 .data.cpu_type_list
                0xe9fd0238      0x63c arch/powerpc/cpu/mpc8xxx/lib8xxx.o
 .data.cpu_type_unknown
                0xe9fd0874       0x1c arch/powerpc/cpu/mpc8xxx/lib8xxx.o
 .data.rel.ro.local.phy_interface_strings
                0xe9fd0890       0x34 arch/powerpc/cpu/mpc8xxx/lib8xxx.o
 .data.rel.init_sequence
                0xe9fd08c4       0x3c arch/powerpc/lib/libpowerpc.o
 .data.law_table
                0xe9fd0900       0x60 board/freescale/common/libfreescale.o
                0xe9fd0900                law_table
 .data.tlb_table
                0xe9fd0960       0xf0 board/freescale/common/libfreescale.o
                0xe9fd0960                tlb_table
 .data.rel.ro.boot_os
                0xe9fd0a50       0x4c common/libcommon.o
 .data.rel.local.cmd_bootm_sub
                0xe9fd0a9c       0xe0 common/libcommon.o
 .data.bootm_help_text
                0xe9fd0b7c      0x4ce common/libcommon.o
 *fill*         0xe9fd104a        0x2 00
 .data.rel.ro.local.weekdays
                0xe9fd104c       0x1c common/libcommon.o
 .data.tabs.6053
                0xe9fd1068       0x21 common/libcommon.o
 *fill*         0xe9fd1089        0x3 00
 .data.root.5971
                0xe9fd108c        0x2 common/libcommon.o
 *fill*         0xe9fd108e        0x2 00
 .data.fdt_help_text
                0xe9fd1090      0x619 common/libcommon.o
 *fill*         0xe9fd16a9        0x3 00
 .data.i2c_help_text
                0xe9fd16ac      0x2ff common/libcommon.o
 *fill*         0xe9fd19ab        0x1 00
 .data.i2c_dp_last_length
                0xe9fd19ac        0x4 common/libcommon.o
 .data.rel.local.cmd_i2c_sub
                0xe9fd19b0      0x150 common/libcommon.o
 .data.rel.ro.local.op_table
                0xe9fd1b00       0x68 common/libcommon.o
 .data.do_echo  0xe9fd1b68        0x4 common/libcommon.o
 .data.dp_last_length
                0xe9fd1b6c        0x4 common/libcommon.o
 .data.rel.ro.local.reg_0_desc_tbl
                0xe9fd1b70       0x78 common/libcommon.o
 .data.rel.ro.local.reg_5_desc_tbl
                0xe9fd1be8       0x90 common/libcommon.o
 .data.rel.ro.local.reg_4_desc_tbl
                0xe9fd1c78       0x90 common/libcommon.o
 .data.rel.ro.local.reg_1_desc_tbl
                0xe9fd1d08       0xc0 common/libcommon.o
 .data.rel.ro.local.reg_2_desc_tbl
                0xe9fd1dc8        0xc common/libcommon.o
 .data.rel.ro.local.reg_3_desc_tbl
                0xe9fd1dd4       0x24 common/libcommon.o
 .data.rel.ro.local.reg_0_5_desc_tbl
                0xe9fd1df8       0x30 common/libcommon.o
 .data.rel.ro.local.desc_and_len_tbl
                0xe9fd1e28       0x30 common/libcommon.o
 .data.curr_device
                0xe9fd1e58        0x4 common/libcommon.o
 .data.cpu_help_text
                0xe9fd1e5c      0x296 common/libcommon.o
 *fill*         0xe9fd20f2        0x2 00
 .data.env_help_text
                0xe9fd20f4      0x243 common/libcommon.o
 *fill*         0xe9fd2337        0x1 00
 .data.env_id   0xe9fd2338        0x4 common/libcommon.o
 .data.rel.cmd_env_sub
                0xe9fd233c      0x118 common/libcommon.o
 .data.pci_help_text
                0xe9fd2454      0x1cb common/libcommon.o
 *fill*         0xe9fd261f        0x1 00
 .data.source_help_text
                0xe9fd2620       0xac common/libcommon.o
 .data.imgextract_help_text
                0xe9fd26cc       0xb2 common/libcommon.o
 *fill*         0xe9fd277e        0x2 00
 .data.trim_threshold
                0xe9fd2780        0x4 common/libcommon.o
 .data.sbrk_base
                0xe9fd2784        0x4 common/libcommon.o
 .data.rel.local.av_
                0xe9fd2788      0x408 common/libcommon.o
 .data.rel.env_htab
                0xe9fd2b90       0x10 common/libcommon.o
                0xe9fd2b90                env_htab
 .data.rel.local.of_busses
                0xe9fd2ba0       0x14 common/libcommon.o
 .data.rel.hash_algo
                0xe9fd2bb4       0x10 common/libcommon.o
 .data.rel.local.reserved_list
                0xe9fd2bc4       0x84 common/libcommon.o
 .data.rel.ro.local.uimage_os
                0xe9fd2c48       0x6c common/libcommon.o
 .data.rel.ro.local.uimage_type
                0xe9fd2cb4       0xcc common/libcommon.o
 .data.rel.ro.local.uimage_comp
                0xe9fd2d80       0x48 common/libcommon.o
 .data.rel.ro.local.uimage_arch
                0xe9fd2dc8       0xfc common/libcommon.o
 .data.hist_cur
                0xe9fd2ec4        0x4 common/libcommon.o
 .data.rel.local.stdio_names
                0xe9fd2ec8        0xc common/libcommon.o
                0xe9fd2ec8                stdio_names
 .data.rel.ro.block_drvr
                0xe9fd2ed4       0x10 disk/libdisk.o
 .data          0xe9fd2ee4        0x4 drivers/i2c/libi2c.o
 .data.i2c_bus_speed
                0xe9fd2ee8        0x8 drivers/i2c/libi2c.o
 .data.rel.ro.local.kbd_to_ansi364
                0xe9fd2ef0       0x20 drivers/input/libinput.o
 .data.cur_dev_num
                0xe9fd2f10        0x4 drivers/mmc/libmmc.o
 .data.fm_info  0xe9fd2f14       0x48 drivers/net/fm/libfm.o
                0xe9fd2f14                fm_info
 .data.rel.local.phy_drivers
                0xe9fd2f5c        0x8 drivers/net/phy/libphy.o
 .data.rel.genphy_driver
                0xe9fd2f64       0x2c drivers/net/phy/libphy.o
 .data.rel.RTL8211B_driver
                0xe9fd2f90       0x2c drivers/net/phy/libphy.o
 .data.month_days
                0xe9fd2fbc       0x30 drivers/rtc/librtc.o
 .data.rel.local.eserial1_device
                0xe9fd2fec       0x30 drivers/serial/libserial.o
                0xe9fd2fec                eserial1_device
 .data.rel.local.eserial2_device
                0xe9fd301c       0x30 drivers/serial/libserial.o
                0xe9fd301c                eserial2_device
 .data.rel.local.eserial3_device
                0xe9fd304c       0x30 drivers/serial/libserial.o
                0xe9fd304c                eserial3_device
 .data.rel.local.eserial4_device
                0xe9fd307c       0x30 drivers/serial/libserial.o
                0xe9fd307c                eserial4_device
 .data.rel.local.eserial6_device
                0xe9fd30ac       0x30 drivers/serial/libserial.o
                0xe9fd30ac                eserial6_device
 .data.rel.local.eserial5_device
                0xe9fd30dc       0x30 drivers/serial/libserial.o
                0xe9fd30dc                eserial5_device
 .data.rel.ro.filesystems
                0xe9fd310c       0x18 fs/fat/libfat.o
 .data.rel.ro.local.fstypes
                0xe9fd3124       0x10 fs/libfs.o
 .data.rel.ro.local.fdt_errtable
                0xe9fd3134       0x34 lib/libfdt/libfdt.o
 .data.rel.ro.local.z_errmsg
                0xe9fd3168       0x28 lib/zlib/libz.o
                0xe9fd3168                z_errmsg
 .data.first_call.6188
                0xe9fd3190        0x4 net/libnet.o
 .data.nfs_offset
                0xe9fd3194        0x4 net/libnet.o
 .data.TftpTimeoutCountMax
                0xe9fd3198        0x4 net/libnet.o
 .data.TftpBlkSizeOption
                0xe9fd319c        0x2 net/libnet.o
 *fill*         0xe9fd319e        0x2 00
 .data.TftpTimeoutMSecs
                0xe9fd31a0        0x4 net/libnet.o
 .data.TftpBlkSize
                0xe9fd31a4        0x2 net/libnet.o
 *fill*         0xe9fd31a6        0x2 00
 .data          0xe9fd31a8       0x10 post/libpost.o
 .data.rel.post_list
                0xe9fd31b8       0x20 post/libpost.o
                0xe9fd31b8                post_list
 .data.rel.fixed_ddr_parm_0
                0xe9fd31d8       0x18 board/freescale/cxo160/libcxo160.o
                0xe9fd31d8                fixed_ddr_parm_0
 .data.ddr_cfg_regs_0
                0xe9fd31f0      0x138 board/freescale/cxo160/libcxo160.o
                0xe9fd31f0                ddr_cfg_regs_0
 *(.sdata*)
 .sdata.sec_liodn_tbl_sz
                0xe9fd3328        0x4 arch/powerpc/cpu/mpc85xx/libmpc85xx.o
                0xe9fd3328                sec_liodn_tbl_sz
 .sdata.liodn_tbl_sz
                0xe9fd332c        0x4 arch/powerpc/cpu/mpc85xx/libmpc85xx.o
                0xe9fd332c                liodn_tbl_sz
 .sdata.rman_liodn_tbl_sz
                0xe9fd3330        0x4 arch/powerpc/cpu/mpc85xx/libmpc85xx.o
                0xe9fd3330                rman_liodn_tbl_sz
 .sdata.fman1_liodn_tbl_sz
                0xe9fd3334        0x4 arch/powerpc/cpu/mpc85xx/libmpc85xx.o
                0xe9fd3334                fman1_liodn_tbl_sz
 .sdata.num_law_entries
                0xe9fd3338        0x4 board/freescale/common/libfreescale.o
                0xe9fd3338                num_law_entries
 .sdata.num_tlb_entries
                0xe9fd333c        0x4 board/freescale/common/libfreescale.o
                0xe9fd333c                num_tlb_entries
 .sdata.env_name_spec
                0xe9fd3340        0x4 common/libcommon.o
                0xe9fd3340                env_name_spec
 .sdata.env_ptr
                0xe9fd3344        0x4 common/libcommon.o
                0xe9fd3344                env_ptr
 .sdata.board_hwconfig
                0xe9fd3348        0x1 common/libcommon.o
                0xe9fd3348                board_hwconfig
 *fill*         0xe9fd3349        0x3 00
 .sdata.cpu_hwconfig
                0xe9fd334c        0x1 common/libcommon.o
                0xe9fd334c                cpu_hwconfig
 *fill*         0xe9fd334d        0x3 00
 .sdata.load_addr
                0xe9fd3350        0x4 common/libcommon.o
                0xe9fd3350                load_addr
 .sdata.ext4fs_indir1_blkno
                0xe9fd3354        0x4 fs/ext4/libext4fs.o
                0xe9fd3354                ext4fs_indir1_blkno
 .sdata.ext4fs_indir2_blkno
                0xe9fd3358        0x4 fs/ext4/libext4fs.o
                0xe9fd3358                ext4fs_indir2_blkno
 .sdata.ext4fs_indir3_blkno
                0xe9fd335c        0x4 fs/ext4/libext4fs.o
                0xe9fd335c                ext4fs_indir3_blkno
 .sdata.NetOurVLAN
                0xe9fd3360        0x2 net/libnet.o
                0xe9fd3360                NetOurVLAN
 .sdata.NetOurNativeVLAN
                0xe9fd3362        0x2 net/libnet.o
                0xe9fd3362                NetOurNativeVLAN
 .sdata.NetBcastAddr
                0xe9fd3364        0x6 net/libnet.o
                0xe9fd3364                NetBcastAddr
 *fill*         0xe9fd336a        0x2 00
 .sdata.TftpRRQTimeoutCountMax
                0xe9fd336c        0x4 net/libnet.o
                0xe9fd336c                TftpRRQTimeoutCountMax
 .sdata.post_list_size
                0xe9fd3370        0x4 post/libpost.o
                0xe9fd3370                post_list_size
                0xe9fd3374                _edata = .
                0xe9fd3374                PROVIDE (edata, .)
                0xe9fd3374                . = .
                0xe9fd3374                . = ALIGN (0x4)

.u_boot_list    0xe9fd3374      0x7f4
                0xe9fd3374                _u_boot_list__start = .
                0xe9fd3374                _u_boot_list_cmd__start = .
 *(SORT(.u_boot_list.cmd.*))
 .u_boot_list.cmd.base
                0xe9fd3374       0x1c common/libcommon.o
                0xe9fd3374                _u_boot_list_cmd_base
 .u_boot_list.cmd.bdinfo
                0xe9fd3390       0x1c common/libcommon.o
                0xe9fd3390                _u_boot_list_cmd_bdinfo
 .u_boot_list.cmd.boot
                0xe9fd33ac       0x1c common/libcommon.o
                0xe9fd33ac                _u_boot_list_cmd_boot
 .u_boot_list.cmd.bootd
                0xe9fd33c8       0x1c common/libcommon.o
                0xe9fd33c8                _u_boot_list_cmd_bootd
 .u_boot_list.cmd.bootelf
                0xe9fd33e4       0x1c common/libcommon.o
                0xe9fd33e4                _u_boot_list_cmd_bootelf
 .u_boot_list.cmd.bootm
                0xe9fd3400       0x1c common/libcommon.o
                0xe9fd3400                _u_boot_list_cmd_bootm
 .u_boot_list.cmd.bootp
                0xe9fd341c       0x1c common/libcommon.o
                0xe9fd341c                _u_boot_list_cmd_bootp
 .u_boot_list.cmd.bootvx
                0xe9fd3438       0x1c common/libcommon.o
                0xe9fd3438                _u_boot_list_cmd_bootvx
 .u_boot_list.cmd.cmp
                0xe9fd3454       0x1c common/libcommon.o
                0xe9fd3454                _u_boot_list_cmd_cmp
 .u_boot_list.cmd.coninfo
                0xe9fd3470       0x1c common/libcommon.o
                0xe9fd3470                _u_boot_list_cmd_coninfo
 .u_boot_list.cmd.cp
                0xe9fd348c       0x1c common/libcommon.o
                0xe9fd348c                _u_boot_list_cmd_cp
 .u_boot_list.cmd.cpu
                0xe9fd34a8       0x1c common/libcommon.o
                0xe9fd34a8                _u_boot_list_cmd_cpu
 .u_boot_list.cmd.crc32
                0xe9fd34c4       0x1c common/libcommon.o
                0xe9fd34c4                _u_boot_list_cmd_crc32
 .u_boot_list.cmd.date
                0xe9fd34e0       0x1c common/libcommon.o
                0xe9fd34e0                _u_boot_list_cmd_date
 .u_boot_list.cmd.dhcp
                0xe9fd34fc       0x1c common/libcommon.o
                0xe9fd34fc                _u_boot_list_cmd_dhcp
 .u_boot_list.cmd.echo
                0xe9fd3518       0x1c common/libcommon.o
                0xe9fd3518                _u_boot_list_cmd_echo
 .u_boot_list.cmd.editenv
                0xe9fd3534       0x1c common/libcommon.o
                0xe9fd3534                _u_boot_list_cmd_editenv
 .u_boot_list.cmd.env
                0xe9fd3550       0x1c common/libcommon.o
                0xe9fd3550                _u_boot_list_cmd_env
 .u_boot_list.cmd.erase
                0xe9fd356c       0x1c common/libcommon.o
                0xe9fd356c                _u_boot_list_cmd_erase
 .u_boot_list.cmd.errata
                0xe9fd3588       0x1c arch/powerpc/cpu/mpc85xx/libmpc85xx.o
                0xe9fd3588                _u_boot_list_cmd_errata
 .u_boot_list.cmd.exit
                0xe9fd35a4       0x1c common/libcommon.o
                0xe9fd35a4                _u_boot_list_cmd_exit
 .u_boot_list.cmd.ext2load
                0xe9fd35c0       0x1c common/libcommon.o
                0xe9fd35c0                _u_boot_list_cmd_ext2load
 .u_boot_list.cmd.ext2ls
                0xe9fd35dc       0x1c common/libcommon.o
                0xe9fd35dc                _u_boot_list_cmd_ext2ls
 .u_boot_list.cmd.false
                0xe9fd35f8       0x1c common/libcommon.o
                0xe9fd35f8                _u_boot_list_cmd_false
 .u_boot_list.cmd.fatinfo
                0xe9fd3614       0x1c common/libcommon.o
                0xe9fd3614                _u_boot_list_cmd_fatinfo
 .u_boot_list.cmd.fatload
                0xe9fd3630       0x1c common/libcommon.o
                0xe9fd3630                _u_boot_list_cmd_fatload
 .u_boot_list.cmd.fatls
                0xe9fd364c       0x1c common/libcommon.o
                0xe9fd364c                _u_boot_list_cmd_fatls
 .u_boot_list.cmd.fdt
                0xe9fd3668       0x1c common/libcommon.o
                0xe9fd3668                _u_boot_list_cmd_fdt
 .u_boot_list.cmd.flinfo
                0xe9fd3684       0x1c common/libcommon.o
                0xe9fd3684                _u_boot_list_cmd_flinfo
 .u_boot_list.cmd.go
                0xe9fd36a0       0x1c common/libcommon.o
                0xe9fd36a0                _u_boot_list_cmd_go
 .u_boot_list.cmd.grepenv
                0xe9fd36bc       0x1c common/libcommon.o
                0xe9fd36bc                _u_boot_list_cmd_grepenv
 .u_boot_list.cmd.help
                0xe9fd36d8       0x1c common/libcommon.o
                0xe9fd36d8                _u_boot_list_cmd_help
 .u_boot_list.cmd.i2c
                0xe9fd36f4       0x1c common/libcommon.o
                0xe9fd36f4                _u_boot_list_cmd_i2c
 .u_boot_list.cmd.iminfo
                0xe9fd3710       0x1c common/libcommon.o
                0xe9fd3710                _u_boot_list_cmd_iminfo
 .u_boot_list.cmd.imls
                0xe9fd372c       0x1c common/libcommon.o
                0xe9fd372c                _u_boot_list_cmd_imls
 .u_boot_list.cmd.imxtract
                0xe9fd3748       0x1c common/libcommon.o
                0xe9fd3748                _u_boot_list_cmd_imxtract
 .u_boot_list.cmd.interrupts
                0xe9fd3764       0x1c common/libcommon.o
                0xe9fd3764                _u_boot_list_cmd_interrupts
 .u_boot_list.cmd.irqinfo
                0xe9fd3780       0x1c common/libcommon.o
                0xe9fd3780                _u_boot_list_cmd_irqinfo
 .u_boot_list.cmd.itest
                0xe9fd379c       0x1c common/libcommon.o
                0xe9fd379c                _u_boot_list_cmd_itest
 .u_boot_list.cmd.loadb
                0xe9fd37b8       0x1c common/libcommon.o
                0xe9fd37b8                _u_boot_list_cmd_loadb
 .u_boot_list.cmd.loads
                0xe9fd37d4       0x1c common/libcommon.o
                0xe9fd37d4                _u_boot_list_cmd_loads
 .u_boot_list.cmd.loady
                0xe9fd37f0       0x1c common/libcommon.o
                0xe9fd37f0                _u_boot_list_cmd_loady
 .u_boot_list.cmd.loop
                0xe9fd380c       0x1c common/libcommon.o
                0xe9fd380c                _u_boot_list_cmd_loop
 .u_boot_list.cmd.md
                0xe9fd3828       0x1c common/libcommon.o
                0xe9fd3828                _u_boot_list_cmd_md
 .u_boot_list.cmd.mdio
                0xe9fd3844       0x1c common/libcommon.o
                0xe9fd3844                _u_boot_list_cmd_mdio
 .u_boot_list.cmd.mii
                0xe9fd3860       0x1c common/libcommon.o
                0xe9fd3860                _u_boot_list_cmd_mii
 .u_boot_list.cmd.mm
                0xe9fd387c       0x1c common/libcommon.o
                0xe9fd387c                _u_boot_list_cmd_mm
 .u_boot_list.cmd.mmc
                0xe9fd3898       0x1c common/libcommon.o
                0xe9fd3898                _u_boot_list_cmd_mmc
 .u_boot_list.cmd.mmcinfo
                0xe9fd38b4       0x1c common/libcommon.o
                0xe9fd38b4                _u_boot_list_cmd_mmcinfo
 .u_boot_list.cmd.mtest
                0xe9fd38d0       0x1c common/libcommon.o
                0xe9fd38d0                _u_boot_list_cmd_mtest
 .u_boot_list.cmd.mw
                0xe9fd38ec       0x1c common/libcommon.o
                0xe9fd38ec                _u_boot_list_cmd_mw
 .u_boot_list.cmd.nfs
                0xe9fd3908       0x1c common/libcommon.o
                0xe9fd3908                _u_boot_list_cmd_nfs
 .u_boot_list.cmd.nm
                0xe9fd3924       0x1c common/libcommon.o
                0xe9fd3924                _u_boot_list_cmd_nm
 .u_boot_list.cmd.pci
                0xe9fd3940       0x1c common/libcommon.o
                0xe9fd3940                _u_boot_list_cmd_pci
 .u_boot_list.cmd.ping
                0xe9fd395c       0x1c common/libcommon.o
                0xe9fd395c                _u_boot_list_cmd_ping
 .u_boot_list.cmd.printenv
                0xe9fd3978       0x1c common/libcommon.o
                0xe9fd3978                _u_boot_list_cmd_printenv
 .u_boot_list.cmd.protect
                0xe9fd3994       0x1c common/libcommon.o
                0xe9fd3994                _u_boot_list_cmd_protect
 .u_boot_list.cmd.question_mark
                0xe9fd39b0       0x1c common/libcommon.o
                0xe9fd39b0                _u_boot_list_cmd_question_mark
 .u_boot_list.cmd.reginfo
                0xe9fd39cc       0x1c common/libcommon.o
                0xe9fd39cc                _u_boot_list_cmd_reginfo
 .u_boot_list.cmd.reset
                0xe9fd39e8       0x1c common/libcommon.o
                0xe9fd39e8                _u_boot_list_cmd_reset
 .u_boot_list.cmd.run
                0xe9fd3a04       0x1c common/libcommon.o
                0xe9fd3a04                _u_boot_list_cmd_run
 .u_boot_list.cmd.saveenv
                0xe9fd3a20       0x1c common/libcommon.o
                0xe9fd3a20                _u_boot_list_cmd_saveenv
 .u_boot_list.cmd.setenv
                0xe9fd3a3c       0x1c common/libcommon.o
                0xe9fd3a3c                _u_boot_list_cmd_setenv
 .u_boot_list.cmd.setexpr
                0xe9fd3a58       0x1c common/libcommon.o
                0xe9fd3a58                _u_boot_list_cmd_setexpr
 .u_boot_list.cmd.showvar
                0xe9fd3a74       0x1c common/libcommon.o
                0xe9fd3a74                _u_boot_list_cmd_showvar
 .u_boot_list.cmd.sleep
                0xe9fd3a90       0x1c common/libcommon.o
                0xe9fd3a90                _u_boot_list_cmd_sleep
 .u_boot_list.cmd.source
                0xe9fd3aac       0x1c common/libcommon.o
                0xe9fd3aac                _u_boot_list_cmd_source
 .u_boot_list.cmd.test
                0xe9fd3ac8       0x1c common/libcommon.o
                0xe9fd3ac8                _u_boot_list_cmd_test
 .u_boot_list.cmd.tftpboot
                0xe9fd3ae4       0x1c common/libcommon.o
                0xe9fd3ae4                _u_boot_list_cmd_tftpboot
 .u_boot_list.cmd.true
                0xe9fd3b00       0x1c common/libcommon.o
                0xe9fd3b00                _u_boot_list_cmd_true
 .u_boot_list.cmd.version
                0xe9fd3b1c       0x1c common/libcommon.o
                0xe9fd3b1c                _u_boot_list_cmd_version
                0xe9fd3b38                _u_boot_list_cmd__end = .
                0xe9fd3b38                _u_boot_list_env_clbk__start = .
 *(SORT(.u_boot_list.env_clbk.*))
 .u_boot_list.env_clbk.baudrate
                0xe9fd3b38        0x8 drivers/serial/libserial.o
                0xe9fd3b38                _u_boot_list_env_clbk_baudrate
 .u_boot_list.env_clbk.bootfile
                0xe9fd3b40        0x8 net/libnet.o
                0xe9fd3b40                _u_boot_list_env_clbk_bootfile
 .u_boot_list.env_clbk.callbacks
                0xe9fd3b48        0x8 common/libcommon.o
                0xe9fd3b48                _u_boot_list_env_clbk_callbacks
 .u_boot_list.env_clbk.console
                0xe9fd3b50        0x8 common/libcommon.o
                0xe9fd3b50                _u_boot_list_env_clbk_console
 .u_boot_list.env_clbk.flags
                0xe9fd3b58        0x8 common/libcommon.o
                0xe9fd3b58                _u_boot_list_env_clbk_flags
 .u_boot_list.env_clbk.loadaddr
                0xe9fd3b60        0x8 common/libcommon.o
                0xe9fd3b60                _u_boot_list_env_clbk_loadaddr
                0xe9fd3b68                _u_boot_list_env_clbk__end = .
 *(SORT(.u_boot_list.*))
                0xe9fd3b68                _u_boot_list__end = .
                0xe9fd3b68                . = .
                0xe9fd3b68                __start___ex_table = .

__ex_table
 *(__ex_table)
                0xe9fd3b68                __stop___ex_table = .
                0xe9fd3c00                . = ALIGN (0x100)
                0xe9fd3c00                __init_begin = .

.text.init
 *(.text.init)

.data.init
 *(.data.init)
                0xe9fd3c00                . = ALIGN (0x100)
                0xe9fd3c00                __init_end = .

.bootpg         0xe9fff000      0x8a0
 arch/powerpc/cpu/mpc85xx/start.o(.bootpg)
 .bootpg        0xe9fff000      0x8a0 arch/powerpc/cpu/mpc85xx/start.o
                0xe9fff000                _start_e500

.resetvec       0xe9fffffc        0x4
 *(.resetvec)
 .resetvec      0xe9fffffc        0x4 arch/powerpc/cpu/mpc85xx/resetvec.o
                0xea000000                . = 0xea000000
                0xea000000                __bss_start = .

.bss            0xea000000    0x36350
 *(.sbss*)
 .sbss          0x00000000        0x0 arch/powerpc/cpu/mpc85xx/start.o
 .sbss.machinecheck_count
                0xea000000        0x4 arch/powerpc/cpu/mpc85xx/libmpc85xx.o
                0xea000000                machinecheck_count
 .sbss.machinecheck_error
                0xea000004        0x4 arch/powerpc/cpu/mpc85xx/libmpc85xx.o
                0xea000004                machinecheck_error
 .sbss          0xea000008        0x4 arch/powerpc/lib/libpowerpc.o
                0xea000008                monitor_flash_len
 .sbss.mem_malloc_brk
                0xea00000c        0x4 common/libcommon.o
                0xea00000c                mem_malloc_brk
 .sbss.mem_malloc_end
                0xea000010        0x4 common/libcommon.o
                0xea000010                mem_malloc_end
 .sbss.mem_malloc_start
                0xea000014        0x4 common/libcommon.o
                0xea000014                mem_malloc_start
 .sbss          0xea000018        0xc common/libcommon.o
                0xea000018                save_addr
                0xea00001c                working_fdt
                0xea000020                save_size
 .sbss          0xea000024       0x2c fs/ext4/libext4fs.o
                0xea000024                part_offset
                0xea000028                ext4fs_indir1_size
                0xea00002c                ext4fs_indir2_block
                0xea000030                ext4fs_indir3_block
                0xea000034                ext4fs_symlinknest
                0xea000038                ext4fs_indir3_size
                0xea00003c                g_parent_inode
                0xea000040                ext4fs_indir2_size
                0xea000044                ext4fs_indir1_block
                0xea000048                ext4fs_file
                0xea00004c                ext4fs_root
 .sbss.errno    0xea000050        0x4 lib/libgeneric.o
                0xea000050                errno
 .sbss          0xea000054       0x70 net/libnet.o
                0xea000054                NetArpWaitTry
                0xea000058                NetArpWaitPacketMAC
                0xea00005c                NetOurEther
                0xea000064                NetOurIP
                0xea000068                NetPingIP
                0xea00006c                NetServerIP
                0xea000070                NetArpWaitTxPacketSize
                0xea000074                NetArpWaitPacketIP
                0xea000078                BootpTry
                0xea00007c                eth_current
                0xea000080                NetServerEther
                0xea000088                NetOurSubnetMask
                0xea00008c                NetBootFileSize
                0xea000090                NetIPID
                0xea000094                NetRxPacket
                0xea000098                net_state
                0xea00009c                BootpID
                0xea0000a0                NetOurGatewayIP
                0xea0000a4                NetEtherNullAddr
                0xea0000ac                NetRestartWrap
                0xea0000b0                NetTxPacket
                0xea0000b4                NetBootFileXferSize
                0xea0000b8                NetOurDNSIP
                0xea0000bc                NetRxPacketLen
                0xea0000c0                NetArpWaitTimerStart
 *(.bss*)
 .bss.serdes_prtcl_map
                0xea0000c4        0x4 arch/powerpc/cpu/mpc85xx/libmpc85xx.o
 .bss.timestamp
                0xea0000c8        0x4 arch/powerpc/lib/libpowerpc.o
 .bss.decrementer_count
                0xea0000cc        0x4 arch/powerpc/lib/libpowerpc.o
 .bss.data.5944
                0xea0000d0      0x400 common/libcommon.o
 .bss.i2c_mm_last_addr
                0xea0004d0        0x4 common/libcommon.o
 .bss.i2c_mm_last_chip
                0xea0004d4        0x1 common/libcommon.o
 *fill*         0xea0004d5        0x3 00
 .bss.i2c_mm_last_alen
                0xea0004d8        0x4 common/libcommon.o
 .bss.i2c_dp_last_chip
                0xea0004dc        0x1 common/libcommon.o
 *fill*         0xea0004dd        0x3 00
 .bss.i2c_dp_last_addr
                0xea0004e0        0x4 common/libcommon.o
 .bss.i2c_dp_last_alen
                0xea0004e4        0x4 common/libcommon.o
 .bss.send_parms
                0xea0004e8       0x14 common/libcommon.o
 .bss.his_eol   0xea0004fc        0x1 common/libcommon.o
 .bss.his_pad_char
                0xea0004fd        0x1 common/libcommon.o
 *fill*         0xea0004fe        0x2 00
 .bss.a_b       0xea000500       0x18 common/libcommon.o
 .bss.os_data_char
                0xea000518        0x4 common/libcommon.o
 .bss.k_data_escape
                0xea00051c        0x4 common/libcommon.o
 .bss.os_data_state_saved
                0xea000520        0x4 common/libcommon.o
 .bss.os_data_state
                0xea000524        0x4 common/libcommon.o
 .bss.send_ptr  0xea000528        0x4 common/libcommon.o
 .bss.his_pad_count
                0xea00052c        0x4 common/libcommon.o
 .bss.bin_start_address
                0xea000530        0x4 common/libcommon.o
 .bss.his_quote
                0xea000534        0x1 common/libcommon.o
 *fill*         0xea000535        0x3 00
 .bss.os_data_init
                0xea000538        0x4 common/libcommon.o
 .bss.os_data_addr
                0xea00053c        0x4 common/libcommon.o
 .bss.os_data_addr_saved
                0xea000540        0x4 common/libcommon.o
 .bss.k_data_escape_saved
                0xea000544        0x4 common/libcommon.o
 .bss.last_reg_hi
                0xea000548        0x8 common/libcommon.o
 .bss.last_data
                0xea000550        0x8 common/libcommon.o
 .bss.last_devad_hi
                0xea000558        0x4 common/libcommon.o
 .bss.last_addr_lo
                0xea00055c        0x8 common/libcommon.o
 .bss.last_op   0xea000564        0x6 common/libcommon.o
 *fill*         0xea00056a        0x2 00
 .bss.last_addr_hi
                0xea00056c        0x8 common/libcommon.o
 .bss.last_reg_lo
                0xea000574        0x8 common/libcommon.o
 .bss.last_devad_lo
                0xea00057c        0x4 common/libcommon.o
 .bss.mm_last_addr
                0xea000580        0x4 common/libcommon.o
 .bss.dp_last_size
                0xea000584        0x4 common/libcommon.o
 .bss.base_address
                0xea000588        0x4 common/libcommon.o
 .bss.mm_last_size
                0xea00058c        0x4 common/libcommon.o
 .bss.dp_last_addr
                0xea000590        0x4 common/libcommon.o
 .bss.tmp_buf   0xea000594      0x100 common/libcommon.o
 .bss.tmp_buf.5964
                0xea000694      0x200 common/libcommon.o
 .bss.ctrlc_was_pressed
                0xea000894        0x4 common/libcommon.o
 .bss.ctrlc_disabled
                0xea000898        0x4 common/libcommon.o
 .bss.max_total_mem
                0xea00089c        0x4 common/libcommon.o
 .bss.max_sbrked_mem
                0xea0008a0        0x4 common/libcommon.o
 .bss.top_pad   0xea0008a4        0x4 common/libcommon.o
 .bss.current_mallinfo
                0xea0008a8       0x28 common/libcommon.o
 .bss.flag_repeat
                0xea0008d0        0x4 common/libcommon.o
 .bss.ifs       0xea0008d4        0x4 common/libcommon.o
 .bss.the_command.6156
                0xea0008d8      0x100 common/libcommon.o
 .bss.last_return_code
                0xea0009d8        0x4 common/libcommon.o
 .bss.map       0xea0009dc      0x100 common/libcommon.o
 .bss.do_repeat
                0xea000adc        0x4 common/libcommon.o
 .bss.buf.6356  0xea000ae0       0x28 common/libcommon.o
 .bss.top_vars  0xea000b08        0x4 common/libcommon.o
 .bss.hist_list
                0xea000b0c       0x50 common/libcommon.o
 .bss.hist_lines
                0xea000b5c     0x1414 common/libcommon.o
 .bss.hist_max  0xea001f70        0x4 common/libcommon.o
 .bss.initted.6357
                0xea001f74        0x4 common/libcommon.o
 .bss.hist_add_idx
                0xea001f78        0x4 common/libcommon.o
 .bss.hist_num  0xea001f7c        0x4 common/libcommon.o
 .bss.current_mii
                0xea001f80        0x4 common/libcommon.o
 .bss.mii_devs  0xea001f84        0x8 common/libcommon.o
 .bss.devs      0xea001f8c       0x3c common/libcommon.o
 .bss.stdio_devices
                0xea001fc8        0xc common/libcommon.o
                0xea001fc8                stdio_devices
 .bss.xyz       0xea001fd4      0x43c common/libcommon.o
 .bss.mmc_devices
                0xea002410        0x8 drivers/mmc/libmmc.o
 .bss.saved_sector.6295
                0xea002418        0x4 drivers/mtd/libmtd.o
 .bss.saved_info.6296
                0xea00241c        0x4 drivers/mtd/libmtd.o
 .bss.devlist   0xea002420       0x50 drivers/net/fm/libfm.o
 .bss.num_controllers
                0xea002470        0x4 drivers/net/fm/libfm.o
 .bss.indent.6194
                0xea002474        0x4 drivers/pci/libpci.o
 .bss.hose_head
                0xea002478        0x4 drivers/pci/libpci.o
 .bss.serial_devices
                0xea00247c        0x4 drivers/serial/libserial.o
 .bss.serial_current
                0xea002480        0x4 drivers/serial/libserial.o
 .bss.symlinknest
                0xea002484        0x4 fs/ext4/libext4fs.o
 .bss.part_info
                0xea002488        0x4 fs/ext4/libext4fs.o
 .bss.ext4fs_block_dev_desc
                0xea00248c        0x4 fs/ext4/libext4fs.o
 .bss.cur_part_info
                0xea002490       0x50 fs/fat/libfat.o
 .bss.cur_dev   0xea0024e0        0x4 fs/fat/libfat.o
 .bss.fs_partition
                0xea0024e4       0x50 fs/libfs.o
 .bss.fs_type   0xea002534        0x4 fs/libfs.o
 .bss.fs_dev_desc
                0xea002538        0x4 fs/libfs.o
 *fill*         0xea00253c        0x4 00
 .bss.address_map
                0xea002540      0x600 lib/libgeneric.o
 .bss.NetArpWaitReplyIP
                0xea002b40        0x4 net/libnet.o
 .bss.NetArpPacketBuf
                0xea002b44      0x640 net/libnet.o
 .bss.NetArpTxPacket
                0xea003184        0x4 net/libnet.o
 .bss.dhcp_state
                0xea003188        0x4 net/libnet.o
 .bss.NetDHCPServerIP
                0xea00318c        0x4 net/libnet.o
 .bss.dhcp_leasetime
                0xea003190        0x4 net/libnet.o
 .bss.index.6515
                0xea003194        0x4 net/libnet.o
 .bss.env_changed_id.6568
                0xea003198        0x4 net/libnet.o
 .bss.act.6567  0xea00319c        0x4 net/libnet.o
 .bss.first_failed.6562
                0xea0031a0        0x4 net/libnet.o
 .bss.eth_devices
                0xea0031a4        0x4 net/libnet.o
 .bss.timeHandler
                0xea0031a8        0x4 net/libnet.o
 .bss.udp_packet_handler
                0xea0031ac        0x4 net/libnet.o
 .bss.PktBuf    0xea0031b0     0x1e40 net/libnet.o
 .bss.env_changed_id.6177
                0xea004ff0        0x4 net/libnet.o
 .bss.NetTryCount
                0xea004ff4        0x4 net/libnet.o
 .bss.NetRestarted
                0xea004ff8        0x4 net/libnet.o
 .bss.timeDelta
                0xea004ffc        0x4 net/libnet.o
 .bss.NetDevExists
                0xea005000        0x4 net/libnet.o
 .bss.NetOurHostName
                0xea005004       0x20 net/libnet.o
                0xea005004                NetOurHostName
 .bss.NetOurRootPath
                0xea005024       0x40 net/libnet.o
                0xea005024                NetOurRootPath
 .bss.timeStart
                0xea005064        0x4 net/libnet.o
 .bss.NetOurNISDomain
                0xea005068       0x20 net/libnet.o
                0xea005068                NetOurNISDomain
 .bss.arp_packet_handler
                0xea005088        0x4 net/libnet.o
 .bss.NfsOurPort
                0xea00508c        0x4 net/libnet.o
 .bss.NfsServerIP
                0xea005090        0x4 net/libnet.o
 .bss.nfs_filename
                0xea005094        0x4 net/libnet.o
 .bss.nfs_len   0xea005098        0x4 net/libnet.o
 .bss.NfsSrvMountPort
                0xea00509c        0x4 net/libnet.o
 .bss.dirfh     0xea0050a0       0x20 net/libnet.o
 .bss.NfsSrvNfsPort
                0xea0050c0        0x4 net/libnet.o
 .bss.rpc_id    0xea0050c4        0x4 net/libnet.o
 .bss.fs_mounted
                0xea0050c8        0x4 net/libnet.o
 .bss.nfs_path_buff
                0xea0050cc      0x800 net/libnet.o
 .bss.nfs_download_state
                0xea0058cc        0x4 net/libnet.o
 .bss.nfs_path  0xea0058d0        0x4 net/libnet.o
 .bss.filefh    0xea0058d4       0x20 net/libnet.o
 .bss.NfsState  0xea0058f4        0x4 net/libnet.o
 .bss.default_filename
                0xea0058f8       0x4d net/libnet.o
 *fill*         0xea005945        0x3 00
 .bss.NfsTimeoutCount
                0xea005948        0x4 net/libnet.o
 .bss.PingSeqNo
                0xea00594c        0x2 net/libnet.o
 *fill*         0xea00594e        0x2 00
 .bss.time_start
                0xea005950        0x4 net/libnet.o
 .bss.TftpTimeoutCount
                0xea005954        0x4 net/libnet.o
 .bss.TftpBlockWrap
                0xea005958        0x4 net/libnet.o
 .bss.TftpBlock
                0xea00595c        0x4 net/libnet.o
 .bss.TftpOurPort
                0xea005960        0x4 net/libnet.o
 .bss.TftpRemoteIP
                0xea005964        0x4 net/libnet.o
 .bss.TftpState
                0xea005968        0x4 net/libnet.o
 .bss.TftpRemotePort
                0xea00596c        0x4 net/libnet.o
 .bss.TftpBlockWrapOffset
                0xea005970        0x4 net/libnet.o
 .bss.TftpLastBlock
                0xea005974        0x4 net/libnet.o
 .bss.tftp_filename
                0xea005978       0x80 net/libnet.o
 *(COMMON)
 COMMON         0xea0059f8      0x300 common/libcommon.o
                0xea0059f8                console_buffer
                0xea005b00                images
 COMMON         0xea005cf8      0x540 drivers/mtd/libmtd.o
                0xea005cf8                flash_info
 COMMON         0xea006238       0x10 drivers/net/fm/libfm.o
                0xea006238                muram
 COMMON         0xea006248       0x48 fs/ext4/libext4fs.o
                0xea006248                ext_fs
 *fill*         0xea006290       0x30 00
 COMMON         0xea0062c0    0x30000 fs/fat/libfat.o
                0xea0062c0                do_fat_read_at_block
                0xea0162c0                get_dentfromdir_block
                0xea0262c0                get_contents_vfatname_block
 COMMON         0xea0362c0       0x90 net/libnet.o
                0xea0362c0                NetRxPackets
                0xea0362d0                BootFile
                0xea036350                . = ALIGN (0x4)
                0xea036350                __bss_end__ = .
                0xea036350                PROVIDE (end, .)
Address of section .text set to 0xe9f80000
LOAD arch/powerpc/cpu/mpc85xx/start.o
LOAD arch/powerpc/cpu/mpc85xx/resetvec.o
START GROUP
LOAD api/libapi.o
LOAD arch/powerpc/cpu/mpc85xx/libmpc85xx.o
LOAD arch/powerpc/cpu/mpc8xxx/ddr/libddr.o
LOAD arch/powerpc/cpu/mpc8xxx/lib8xxx.o
LOAD arch/powerpc/lib/libpowerpc.o
LOAD board/freescale/common/libfreescale.o
LOAD common/libcommon.o
LOAD disk/libdisk.o
LOAD drivers/bios_emulator/libatibiosemu.o
LOAD drivers/block/libblock.o
LOAD drivers/dfu/libdfu.o
LOAD drivers/dma/libdma.o
LOAD drivers/fpga/libfpga.o
LOAD drivers/gpio/libgpio.o
LOAD drivers/hwmon/libhwmon.o
LOAD drivers/i2c/libi2c.o
LOAD drivers/input/libinput.o
LOAD drivers/misc/libmisc.o
LOAD drivers/mmc/libmmc.o
LOAD drivers/mtd/libmtd.o
LOAD drivers/mtd/nand/libnand.o
LOAD drivers/mtd/onenand/libonenand.o
LOAD drivers/mtd/spi/libspi_flash.o
LOAD drivers/mtd/ubi/libubi.o
LOAD drivers/net/fm/libfm.o
LOAD drivers/net/libnet.o
LOAD drivers/net/phy/libphy.o
LOAD drivers/pci/libpci.o
LOAD drivers/pcmcia/libpcmcia.o
LOAD drivers/power/battery/libbattery.o
LOAD drivers/power/fuel_gauge/libfuel_gauge.o
LOAD drivers/power/libpower.o
LOAD drivers/power/pmic/libpmic.o
LOAD drivers/qe/libqe.o
LOAD drivers/rtc/librtc.o
LOAD drivers/sec/libsec.o
LOAD drivers/serial/libserial.o
LOAD drivers/sound/libsound.o
LOAD drivers/spi/libspi.o
LOAD drivers/twserial/libtws.o
LOAD drivers/usb/eth/libusb_eth.o
LOAD drivers/usb/gadget/libusb_gadget.o
LOAD drivers/usb/host/libusb_host.o
LOAD drivers/usb/musb-new/libusb_musb-new.o
LOAD drivers/usb/musb/libusb_musb.o
LOAD drivers/usb/phy/libusb_phy.o
LOAD drivers/usb/ulpi/libusb_ulpi.o
LOAD drivers/video/libvideo.o
LOAD drivers/watchdog/libwatchdog.o
LOAD fs/cbfs/libcbfs.o
LOAD fs/cramfs/libcramfs.o
LOAD fs/ext4/libext4fs.o
LOAD fs/fat/libfat.o
LOAD fs/fdos/libfdos.o
LOAD fs/jffs2/libjffs2.o
LOAD fs/libfs.o
LOAD fs/reiserfs/libreiserfs.o
LOAD fs/ubifs/libubifs.o
LOAD fs/yaffs2/libyaffs2.o
LOAD fs/zfs/libzfs.o
LOAD lib/libfdt/libfdt.o
LOAD lib/libgeneric.o
LOAD lib/lzma/liblzma.o
LOAD lib/lzo/liblzo.o
LOAD lib/zlib/libz.o
LOAD net/libnet.o
LOAD post/libpost.o
LOAD test/libtest.o
LOAD board/freescale/cxo160/libcxo160.o
END GROUP
LOAD /opt/fsl/1.2/sysroots/ppce500mc-fsl-linux/usr/lib/powerpc-fsl-linux/4.6.2/libgcc.a
OUTPUT(u-boot elf32-powerpc)

.iplt           0xea036350        0x0
 .iplt          0x00000000        0x0 arch/powerpc/cpu/mpc85xx/start.o

.PPC.EMB.apuinfo
                0x00000000       0x20
 .PPC.EMB.apuinfo
                0x00000000       0x1c arch/powerpc/cpu/mpc85xx/start.o
 .PPC.EMB.apuinfo
                0x0000001c       0x18 /opt/fsl/1.2/sysroots/ppce500mc-fsl-linux/usr/lib/powerpc-fsl-linux/4.6.2/libgcc.a(_udivdi3.o)

.comment        0x00000000       0x11
 .comment       0x00000000       0x11 arch/powerpc/cpu/mpc85xx/libmpc85xx.o
                                0x144 (size before relaxing)
 .comment       0x00000000       0x5a arch/powerpc/cpu/mpc8xxx/ddr/libddr.o
 .comment       0x00000000       0x6c arch/powerpc/cpu/mpc8xxx/lib8xxx.o
 .comment       0x00000000       0x6c arch/powerpc/lib/libpowerpc.o
 .comment       0x00000000       0x48 board/freescale/common/libfreescale.o
 .comment       0x00000000      0x3de common/libcommon.o
 .comment       0x00000000       0x24 disk/libdisk.o
 .comment       0x00000000       0x12 drivers/i2c/libi2c.o
 .comment       0x00000000       0x12 drivers/input/libinput.o
 .comment       0x00000000       0x24 drivers/mmc/libmmc.o
 .comment       0x00000000       0x12 drivers/mtd/libmtd.o
 .comment       0x00000000       0x7e drivers/net/fm/libfm.o
 .comment       0x00000000       0x12 drivers/net/libnet.o
 .comment       0x00000000       0x24 drivers/net/phy/libphy.o
 .comment       0x00000000       0x48 drivers/pci/libpci.o
 .comment       0x00000000       0x24 drivers/pcmcia/libpcmcia.o
 .comment       0x00000000       0x24 drivers/rtc/librtc.o
 .comment       0x00000000       0x36 drivers/serial/libserial.o
 .comment       0x00000000       0x36 fs/ext4/libext4fs.o
 .comment       0x00000000       0x24 fs/fat/libfat.o
 .comment       0x00000000       0x12 fs/libfs.o
 .comment       0x00000000       0x7e lib/libfdt/libfdt.o
 .comment       0x00000000      0x17a lib/libgeneric.o
 .comment       0x00000000       0x12 lib/zlib/libz.o
 .comment       0x00000000       0x7e net/libnet.o
 .comment       0x00000000      0x276 post/libpost.o
 .comment       0x00000000       0x36 board/freescale/cxo160/libcxo160.o
 .comment       0x00000000       0x12 /opt/fsl/1.2/sysroots/ppce500mc-fsl-linux/usr/lib/powerpc-fsl-linux/4.6.2/libgcc.a(_lshrdi3.o)
 .comment       0x00000000       0x12 /opt/fsl/1.2/sysroots/ppce500mc-fsl-linux/usr/lib/powerpc-fsl-linux/4.6.2/libgcc.a(_ashldi3.o)
 .comment       0x00000000       0x12 /opt/fsl/1.2/sysroots/ppce500mc-fsl-linux/usr/lib/powerpc-fsl-linux/4.6.2/libgcc.a(_udivdi3.o)

.note.GNU-stack
                0x00000000        0x0
 .note.GNU-stack
                0x00000000        0x0 arch/powerpc/cpu/mpc85xx/libmpc85xx.o
 .note.GNU-stack
                0x00000000        0x0 arch/powerpc/cpu/mpc8xxx/ddr/libddr.o
 .note.GNU-stack
                0x00000000        0x0 arch/powerpc/cpu/mpc8xxx/lib8xxx.o
 .note.GNU-stack
                0x00000000        0x0 arch/powerpc/lib/libpowerpc.o
 .note.GNU-stack
                0x00000000        0x0 board/freescale/common/libfreescale.o
 .note.GNU-stack
                0x00000000        0x0 common/libcommon.o
 .note.GNU-stack
                0x00000000        0x0 disk/libdisk.o
 .note.GNU-stack
                0x00000000        0x0 drivers/i2c/libi2c.o
 .note.GNU-stack
                0x00000000        0x0 drivers/input/libinput.o
 .note.GNU-stack
                0x00000000        0x0 drivers/mmc/libmmc.o
 .note.GNU-stack
                0x00000000        0x0 drivers/mtd/libmtd.o
 .note.GNU-stack
                0x00000000        0x0 drivers/net/fm/libfm.o
 .note.GNU-stack
                0x00000000        0x0 drivers/net/libnet.o
 .note.GNU-stack
                0x00000000        0x0 drivers/net/phy/libphy.o
 .note.GNU-stack
                0x00000000        0x0 drivers/pci/libpci.o
 .note.GNU-stack
                0x00000000        0x0 drivers/pcmcia/libpcmcia.o
 .note.GNU-stack
                0x00000000        0x0 drivers/rtc/librtc.o
 .note.GNU-stack
                0x00000000        0x0 drivers/serial/libserial.o
 .note.GNU-stack
                0x00000000        0x0 fs/ext4/libext4fs.o
 .note.GNU-stack
                0x00000000        0x0 fs/fat/libfat.o
 .note.GNU-stack
                0x00000000        0x0 fs/libfs.o
 .note.GNU-stack
                0x00000000        0x0 lib/libfdt/libfdt.o
 .note.GNU-stack
                0x00000000        0x0 lib/libgeneric.o
 .note.GNU-stack
                0x00000000        0x0 lib/zlib/libz.o
 .note.GNU-stack
                0x00000000        0x0 net/libnet.o
 .note.GNU-stack
                0x00000000        0x0 post/libpost.o
 .note.GNU-stack
                0x00000000        0x0 board/freescale/cxo160/libcxo160.o
 .note.GNU-stack
                0x00000000        0x0 /opt/fsl/1.2/sysroots/ppce500mc-fsl-linux/usr/lib/powerpc-fsl-linux/4.6.2/libgcc.a(_lshrdi3.o)
 .note.GNU-stack
                0x00000000        0x0 /opt/fsl/1.2/sysroots/ppce500mc-fsl-linux/usr/lib/powerpc-fsl-linux/4.6.2/libgcc.a(_ashldi3.o)
 .note.GNU-stack
                0x00000000        0x0 /opt/fsl/1.2/sysroots/ppce500mc-fsl-linux/usr/lib/powerpc-fsl-linux/4.6.2/libgcc.a(_udivdi3.o)
 .note.GNU-stack
                0x00000000        0x0 /opt/fsl/1.2/sysroots/ppce500mc-fsl-linux/usr/lib/powerpc-fsl-linux/4.6.2/libgcc.a(crtsavgpr.o)
 .note.GNU-stack
                0x00000000        0x0 /opt/fsl/1.2/sysroots/ppce500mc-fsl-linux/usr/lib/powerpc-fsl-linux/4.6.2/libgcc.a(crtresxgpr.o)

.gnu.attributes
                0x00000000       0x12
 .gnu.attributes
                0x00000000       0x10 common/libcommon.o
 .gnu.attributes
                0x00000010       0x12 lib/libgeneric.o
 .gnu.attributes
                0x00000022       0x10 post/libpost.o

.debug_line     0x00000000    0x22c4f
 .debug_line    0x00000000      0x45e arch/powerpc/cpu/mpc85xx/start.o
 .debug_line    0x0000045e       0x38 arch/powerpc/cpu/mpc85xx/resetvec.o
 .debug_line    0x00000496     0x30b3 arch/powerpc/cpu/mpc85xx/libmpc85xx.o
 .debug_line    0x00003549     0x1085 arch/powerpc/cpu/mpc8xxx/ddr/libddr.o
 .debug_line    0x000045ce     0x1067 arch/powerpc/cpu/mpc8xxx/lib8xxx.o
 .debug_line    0x00005635      0xca5 arch/powerpc/lib/libpowerpc.o
 .debug_line    0x000062da      0x3ce board/freescale/common/libfreescale.o
 .debug_line    0x000066a8     0xa1de common/libcommon.o
 .debug_line    0x00010886      0x660 disk/libdisk.o
 .debug_line    0x00010ee6      0x5b6 drivers/i2c/libi2c.o
 .debug_line    0x0001149c      0x34b drivers/input/libinput.o
 .debug_line    0x000117e7      0xcdf drivers/mmc/libmmc.o
 .debug_line    0x000124c6      0xd96 drivers/mtd/libmtd.o
 .debug_line    0x0001325c     0x1373 drivers/net/fm/libfm.o
 .debug_line    0x000145cf      0x239 drivers/net/libnet.o
 .debug_line    0x00014808      0x6c4 drivers/net/phy/libphy.o
 .debug_line    0x00014ecc     0x1122 drivers/pci/libpci.o
 .debug_line    0x00015fee      0x182 drivers/pcmcia/libpcmcia.o
 .debug_line    0x00016170      0x412 drivers/rtc/librtc.o
 .debug_line    0x00016582      0xa90 drivers/serial/libserial.o
 .debug_line    0x00017012      0xe0e fs/ext4/libext4fs.o
 .debug_line    0x00017e20      0xb66 fs/fat/libfat.o
 .debug_line    0x00018986      0x2ca fs/libfs.o
 .debug_line    0x00018c50     0x122b lib/libfdt/libfdt.o
 .debug_line    0x00019e7b     0x2e11 lib/libgeneric.o
 .debug_line    0x0001cc8c      0xcc2 lib/zlib/libz.o
 .debug_line    0x0001d94e     0x1adf net/libnet.o
 .debug_line    0x0001f42d     0x29ac post/libpost.o
 .debug_line    0x00021dd9      0x574 board/freescale/cxo160/libcxo160.o
 .debug_line    0x0002234d      0x2a9 /opt/fsl/1.2/sysroots/ppce500mc-fsl-linux/usr/lib/powerpc-fsl-linux/4.6.2/libgcc.a(_lshrdi3.o)
 .debug_line    0x000225f6      0x2a9 /opt/fsl/1.2/sysroots/ppce500mc-fsl-linux/usr/lib/powerpc-fsl-linux/4.6.2/libgcc.a(_ashldi3.o)
 .debug_line    0x0002289f      0x312 /opt/fsl/1.2/sysroots/ppce500mc-fsl-linux/usr/lib/powerpc-fsl-linux/4.6.2/libgcc.a(_udivdi3.o)
 .debug_line    0x00022bb1       0x4d /opt/fsl/1.2/sysroots/ppce500mc-fsl-linux/usr/lib/powerpc-fsl-linux/4.6.2/libgcc.a(crtsavgpr.o)
 .debug_line    0x00022bfe       0x51 /opt/fsl/1.2/sysroots/ppce500mc-fsl-linux/usr/lib/powerpc-fsl-linux/4.6.2/libgcc.a(crtresxgpr.o)

.debug_info     0x00000000    0x99d1a
 .debug_info    0x00000000       0x7d arch/powerpc/cpu/mpc85xx/start.o
 .debug_info    0x0000007d       0x84 arch/powerpc/cpu/mpc85xx/resetvec.o
 .debug_info    0x00000101    0x189aa arch/powerpc/cpu/mpc85xx/libmpc85xx.o
 .debug_info    0x00018aab     0x75a5 arch/powerpc/cpu/mpc8xxx/ddr/libddr.o
 .debug_info    0x00020050     0x612c arch/powerpc/cpu/mpc8xxx/lib8xxx.o
 .debug_info    0x0002617c     0x323c arch/powerpc/lib/libpowerpc.o
 .debug_info    0x000293b8     0x1226 board/freescale/common/libfreescale.o
 .debug_info    0x0002a5de    0x281fb common/libcommon.o
 .debug_info    0x000527d9     0x17ac disk/libdisk.o
 .debug_info    0x00053f85     0x1622 drivers/i2c/libi2c.o
 .debug_info    0x000555a7      0xed6 drivers/input/libinput.o
 .debug_info    0x0005647d     0x37e1 drivers/mmc/libmmc.o
 .debug_info    0x00059c5e     0x34ba drivers/mtd/libmtd.o
 .debug_info    0x0005d118     0xa2bb drivers/net/fm/libfm.o
 .debug_info    0x000673d3      0xbab drivers/net/libnet.o
 .debug_info    0x00067f7e     0x1e64 drivers/net/phy/libphy.o
 .debug_info    0x00069de2     0x5bce drivers/pci/libpci.o
 .debug_info    0x0006f9b0      0x622 drivers/pcmcia/libpcmcia.o
 .debug_info    0x0006ffd2      0xca4 drivers/rtc/librtc.o
 .debug_info    0x00070c76     0x2765 drivers/serial/libserial.o
 .debug_info    0x000733db     0x3bb5 fs/ext4/libext4fs.o
 .debug_info    0x00076f90     0x26f3 fs/fat/libfat.o
 .debug_info    0x00079683      0xd38 fs/libfs.o
 .debug_info    0x0007a3bb     0x4134 lib/libfdt/libfdt.o
 .debug_info    0x0007e4ef     0x6d29 lib/libgeneric.o
 .debug_info    0x00085218     0x12e8 lib/zlib/libz.o
 .debug_info    0x00086500     0x7180 net/libnet.o
 .debug_info    0x0008d680     0x90ea post/libpost.o
 .debug_info    0x0009676a     0x22e6 board/freescale/cxo160/libcxo160.o
 .debug_info    0x00098a50      0x440 /opt/fsl/1.2/sysroots/ppce500mc-fsl-linux/usr/lib/powerpc-fsl-linux/4.6.2/libgcc.a(_lshrdi3.o)
 .debug_info    0x00098e90      0x440 /opt/fsl/1.2/sysroots/ppce500mc-fsl-linux/usr/lib/powerpc-fsl-linux/4.6.2/libgcc.a(_ashldi3.o)
 .debug_info    0x000992d0      0x841 /opt/fsl/1.2/sysroots/ppce500mc-fsl-linux/usr/lib/powerpc-fsl-linux/4.6.2/libgcc.a(_udivdi3.o)
 .debug_info    0x00099b11      0x104 /opt/fsl/1.2/sysroots/ppce500mc-fsl-linux/usr/lib/powerpc-fsl-linux/4.6.2/libgcc.a(crtsavgpr.o)
 .debug_info    0x00099c15      0x105 /opt/fsl/1.2/sysroots/ppce500mc-fsl-linux/usr/lib/powerpc-fsl-linux/4.6.2/libgcc.a(crtresxgpr.o)

.debug_abbrev   0x00000000    0x1b3b0
 .debug_abbrev  0x00000000       0x12 arch/powerpc/cpu/mpc85xx/start.o
 .debug_abbrev  0x00000012       0x14 arch/powerpc/cpu/mpc85xx/resetvec.o
 .debug_abbrev  0x00000026     0x316a arch/powerpc/cpu/mpc85xx/libmpc85xx.o
 .debug_abbrev  0x00003190      0xcda arch/powerpc/cpu/mpc8xxx/ddr/libddr.o
 .debug_abbrev  0x00003e6a     0x1195 arch/powerpc/cpu/mpc8xxx/lib8xxx.o
 .debug_abbrev  0x00004fff      0xcb6 arch/powerpc/lib/libpowerpc.o
 .debug_abbrev  0x00005cb5      0x461 board/freescale/common/libfreescale.o
 .debug_abbrev  0x00006116     0x7a1f common/libcommon.o
 .debug_abbrev  0x0000db35      0x577 disk/libdisk.o
 .debug_abbrev  0x0000e0ac      0x401 drivers/i2c/libi2c.o
 .debug_abbrev  0x0000e4ad      0x383 drivers/input/libinput.o
 .debug_abbrev  0x0000e830      0x840 drivers/mmc/libmmc.o
 .debug_abbrev  0x0000f070      0x486 drivers/mtd/libmtd.o
 .debug_abbrev  0x0000f4f6     0x152b drivers/net/fm/libfm.o
 .debug_abbrev  0x00010a21      0x271 drivers/net/libnet.o
 .debug_abbrev  0x00010c92      0x5a0 drivers/net/phy/libphy.o
 .debug_abbrev  0x00011232      0xd08 drivers/pci/libpci.o
 .debug_abbrev  0x00011f3a      0x198 drivers/pcmcia/libpcmcia.o
 .debug_abbrev  0x000120d2      0x382 drivers/rtc/librtc.o
 .debug_abbrev  0x00012454      0x778 drivers/serial/libserial.o
 .debug_abbrev  0x00012bcc      0x706 fs/ext4/libext4fs.o
 .debug_abbrev  0x000132d2      0x60c fs/fat/libfat.o
 .debug_abbrev  0x000138de      0x2b0 fs/libfs.o
 .debug_abbrev  0x00013b8e      0xd66 lib/libfdt/libfdt.o
 .debug_abbrev  0x000148f4     0x2030 lib/libgeneric.o
 .debug_abbrev  0x00016924      0x347 lib/zlib/libz.o
 .debug_abbrev  0x00016c6b     0x17ad net/libnet.o
 .debug_abbrev  0x00018418     0x245b post/libpost.o
 .debug_abbrev  0x0001a873      0x6d2 board/freescale/cxo160/libcxo160.o
 .debug_abbrev  0x0001af45      0x14a /opt/fsl/1.2/sysroots/ppce500mc-fsl-linux/usr/lib/powerpc-fsl-linux/4.6.2/libgcc.a(_lshrdi3.o)
 .debug_abbrev  0x0001b08f      0x14a /opt/fsl/1.2/sysroots/ppce500mc-fsl-linux/usr/lib/powerpc-fsl-linux/4.6.2/libgcc.a(_ashldi3.o)
 .debug_abbrev  0x0001b1d9      0x1af /opt/fsl/1.2/sysroots/ppce500mc-fsl-linux/usr/lib/powerpc-fsl-linux/4.6.2/libgcc.a(_udivdi3.o)
 .debug_abbrev  0x0001b388       0x14 /opt/fsl/1.2/sysroots/ppce500mc-fsl-linux/usr/lib/powerpc-fsl-linux/4.6.2/libgcc.a(crtsavgpr.o)
 .debug_abbrev  0x0001b39c       0x14 /opt/fsl/1.2/sysroots/ppce500mc-fsl-linux/usr/lib/powerpc-fsl-linux/4.6.2/libgcc.a(crtresxgpr.o)

.debug_aranges  0x00000000     0x3870
 .debug_aranges
                0x00000000       0x28 arch/powerpc/cpu/mpc85xx/start.o
 .debug_aranges
                0x00000028       0x20 arch/powerpc/cpu/mpc85xx/resetvec.o
 .debug_aranges
                0x00000048      0x468 arch/powerpc/cpu/mpc85xx/libmpc85xx.o
 .debug_aranges
                0x000004b0      0x110 arch/powerpc/cpu/mpc8xxx/ddr/libddr.o
 .debug_aranges
                0x000005c0      0x178 arch/powerpc/cpu/mpc8xxx/lib8xxx.o
 .debug_aranges
                0x00000738      0x1f0 arch/powerpc/lib/libpowerpc.o
 .debug_aranges
                0x00000928       0x50 board/freescale/common/libfreescale.o
 .debug_aranges
                0x00000978     0x11a0 common/libcommon.o
 .debug_aranges
                0x00001b18       0x98 disk/libdisk.o
 .debug_aranges
                0x00001bb0       0x68 drivers/i2c/libi2c.o
 .debug_aranges
                0x00001c18       0x58 drivers/input/libinput.o
 .debug_aranges
                0x00001c70      0x118 drivers/mmc/libmmc.o
 .debug_aranges
                0x00001d88       0xc8 drivers/mtd/libmtd.o
 .debug_aranges
                0x00001e50      0x1e8 drivers/net/fm/libfm.o
 .debug_aranges
                0x00002038       0x48 drivers/net/libnet.o
 .debug_aranges
                0x00002080       0xd8 drivers/net/phy/libphy.o
 .debug_aranges
                0x00002158      0x258 drivers/pci/libpci.o
 .debug_aranges
                0x000023b0       0x70 drivers/rtc/librtc.o
 .debug_aranges
                0x00002420      0x250 drivers/serial/libserial.o
 .debug_aranges
                0x00002670       0xc0 fs/ext4/libext4fs.o
 .debug_aranges
                0x00002730       0xe8 fs/fat/libfat.o
 .debug_aranges
                0x00002818       0x58 fs/libfs.o
 .debug_aranges
                0x00002870      0x2b0 lib/libfdt/libfdt.o
 .debug_aranges
                0x00002b20      0x4b0 lib/libgeneric.o
 .debug_aranges
                0x00002fd0       0x68 lib/zlib/libz.o
 .debug_aranges
                0x00003038      0x358 net/libnet.o
 .debug_aranges
                0x00003390      0x398 post/libpost.o
 .debug_aranges
                0x00003728       0xa8 board/freescale/cxo160/libcxo160.o
 .debug_aranges
                0x000037d0       0x20 /opt/fsl/1.2/sysroots/ppce500mc-fsl-linux/usr/lib/powerpc-fsl-linux/4.6.2/libgcc.a(_lshrdi3.o)
 .debug_aranges
                0x000037f0       0x20 /opt/fsl/1.2/sysroots/ppce500mc-fsl-linux/usr/lib/powerpc-fsl-linux/4.6.2/libgcc.a(_ashldi3.o)
 .debug_aranges
                0x00003810       0x20 /opt/fsl/1.2/sysroots/ppce500mc-fsl-linux/usr/lib/powerpc-fsl-linux/4.6.2/libgcc.a(_udivdi3.o)
 .debug_aranges
                0x00003830       0x20 /opt/fsl/1.2/sysroots/ppce500mc-fsl-linux/usr/lib/powerpc-fsl-linux/4.6.2/libgcc.a(crtsavgpr.o)
 .debug_aranges
                0x00003850       0x20 /opt/fsl/1.2/sysroots/ppce500mc-fsl-linux/usr/lib/powerpc-fsl-linux/4.6.2/libgcc.a(crtresxgpr.o)

.debug_ranges   0x00000000     0x9e38
 .debug_ranges  0x00000000       0x20 arch/powerpc/cpu/mpc85xx/start.o
 .debug_ranges  0x00000020     0x15f0 arch/powerpc/cpu/mpc85xx/libmpc85xx.o
 .debug_ranges  0x00001610      0x748 arch/powerpc/cpu/mpc8xxx/ddr/libddr.o
 .debug_ranges  0x00001d58      0x6a8 arch/powerpc/cpu/mpc8xxx/lib8xxx.o
 .debug_ranges  0x00002400      0x200 arch/powerpc/lib/libpowerpc.o
 .debug_ranges  0x00002600       0x30 board/freescale/common/libfreescale.o
 .debug_ranges  0x00002630     0x2530 common/libcommon.o
 .debug_ranges  0x00004b60      0x188 disk/libdisk.o
 .debug_ranges  0x00004ce8      0x328 drivers/i2c/libi2c.o
 .debug_ranges  0x00005010      0x110 drivers/input/libinput.o
 .debug_ranges  0x00005120      0x358 drivers/mmc/libmmc.o
 .debug_ranges  0x00005478      0x930 drivers/mtd/libmtd.o
 .debug_ranges  0x00005da8      0x5b8 drivers/net/fm/libfm.o
 .debug_ranges  0x00006360       0x38 drivers/net/libnet.o
 .debug_ranges  0x00006398      0x3c8 drivers/net/phy/libphy.o
 .debug_ranges  0x00006760      0x590 drivers/pci/libpci.o
 .debug_ranges  0x00006cf0      0x150 drivers/rtc/librtc.o
 .debug_ranges  0x00006e40      0x520 drivers/serial/libserial.o
 .debug_ranges  0x00007360      0x4d8 fs/ext4/libext4fs.o
 .debug_ranges  0x00007838      0x400 fs/fat/libfat.o
 .debug_ranges  0x00007c38       0x48 fs/libfs.o
 .debug_ranges  0x00007c80      0x830 lib/libfdt/libfdt.o
 .debug_ranges  0x000084b0      0x8a0 lib/libgeneric.o
 .debug_ranges  0x00008d50       0x98 lib/zlib/libz.o
 .debug_ranges  0x00008de8      0xa00 net/libnet.o
 .debug_ranges  0x000097e8      0x458 post/libpost.o
 .debug_ranges  0x00009c40      0x100 board/freescale/cxo160/libcxo160.o
 .debug_ranges  0x00009d40       0xf8 /opt/fsl/1.2/sysroots/ppce500mc-fsl-linux/usr/lib/powerpc-fsl-linux/4.6.2/libgcc.a(_udivdi3.o)

.debug_frame    0x00000000     0xaf48
 .debug_frame   0x00000000      0xc3c arch/powerpc/cpu/mpc85xx/libmpc85xx.o
 .debug_frame   0x00000c3c      0x2b4 arch/powerpc/cpu/mpc8xxx/ddr/libddr.o
 .debug_frame   0x00000ef0      0x3f8 arch/powerpc/cpu/mpc8xxx/lib8xxx.o
 .debug_frame   0x000012e8      0x35c arch/powerpc/lib/libpowerpc.o
 .debug_frame   0x00001644       0xac board/freescale/common/libfreescale.o
 .debug_frame   0x000016f0     0x3c78 common/libcommon.o
 .debug_frame   0x00005368      0x204 disk/libdisk.o
 .debug_frame   0x0000556c      0x1b8 drivers/i2c/libi2c.o
 .debug_frame   0x00005724      0x114 drivers/input/libinput.o
 .debug_frame   0x00005838      0x440 drivers/mmc/libmmc.o
 .debug_frame   0x00005c78      0x340 drivers/mtd/libmtd.o
 .debug_frame   0x00005fb8      0x508 drivers/net/fm/libfm.o
 .debug_frame   0x000064c0       0x9c drivers/net/libnet.o
 .debug_frame   0x0000655c      0x2e0 drivers/net/phy/libphy.o
 .debug_frame   0x0000683c      0x850 drivers/pci/libpci.o
 .debug_frame   0x0000708c      0x108 drivers/rtc/librtc.o
 .debug_frame   0x00007194      0x760 drivers/serial/libserial.o
 .debug_frame   0x000078f4      0x2b4 fs/ext4/libext4fs.o
 .debug_frame   0x00007ba8      0x330 fs/fat/libfat.o
 .debug_frame   0x00007ed8      0x128 fs/libfs.o
 .debug_frame   0x00008000      0x95c lib/libfdt/libfdt.o
 .debug_frame   0x0000895c      0xde0 lib/libgeneric.o
 .debug_frame   0x0000973c      0x1bc lib/zlib/libz.o
 .debug_frame   0x000098f8      0xcb8 net/libnet.o
 .debug_frame   0x0000a5b0      0x784 post/libpost.o
 .debug_frame   0x0000ad34      0x1d4 board/freescale/cxo160/libcxo160.o
 .debug_frame   0x0000af08       0x20 /opt/fsl/1.2/sysroots/ppce500mc-fsl-linux/usr/lib/powerpc-fsl-linux/4.6.2/libgcc.a(_lshrdi3.o)
 .debug_frame   0x0000af28       0x20 /opt/fsl/1.2/sysroots/ppce500mc-fsl-linux/usr/lib/powerpc-fsl-linux/4.6.2/libgcc.a(_ashldi3.o)

.debug_str      0x00000000    0x11828
 .debug_str     0x00000000     0x32fd arch/powerpc/cpu/mpc85xx/libmpc85xx.o
                               0xa331 (size before relaxing)
 .debug_str     0x000032fd     0x1006 arch/powerpc/cpu/mpc8xxx/ddr/libddr.o
                               0x444d (size before relaxing)
 .debug_str     0x00004303      0x7d1 arch/powerpc/cpu/mpc8xxx/lib8xxx.o
                               0x2845 (size before relaxing)
 .debug_str     0x00004ad4     0x10ab arch/powerpc/lib/libpowerpc.o
                               0x2f46 (size before relaxing)
 .debug_str     0x00005b7f      0x13d board/freescale/common/libfreescale.o
                               0x121d (size before relaxing)
 .debug_str     0x00005cbc     0x47d2 common/libcommon.o
                              0x150c8 (size before relaxing)
 .debug_str     0x0000a48e      0x2bd disk/libdisk.o
                                0xa44 (size before relaxing)
 .debug_str     0x0000a74b      0x14d drivers/i2c/libi2c.o
                                0x521 (size before relaxing)
 .debug_str     0x0000a898      0x330 drivers/input/libinput.o
                                0x613 (size before relaxing)
 .debug_str     0x0000abc8      0x48a drivers/mmc/libmmc.o
                                0xf3d (size before relaxing)
 .debug_str     0x0000b052      0x6b2 drivers/mtd/libmtd.o
                                0xb2b (size before relaxing)
 .debug_str     0x0000b704      0xf8e drivers/net/fm/libfm.o
                               0x490e (size before relaxing)
 .debug_str     0x0000c692       0xcb drivers/net/libnet.o
                                0x5da (size before relaxing)
 .debug_str     0x0000c75d      0x214 drivers/net/phy/libphy.o
                                0xc5a (size before relaxing)
 .debug_str     0x0000c971      0x928 drivers/pci/libpci.o
                               0x23ca (size before relaxing)
 .debug_str     0x0000d299       0x64 drivers/pcmcia/libpcmcia.o
                                0x4fb (size before relaxing)
 .debug_str     0x0000d2fd       0xfc drivers/rtc/librtc.o
                                0x66d (size before relaxing)
 .debug_str     0x0000d3f9      0x5f0 drivers/serial/libserial.o
                                0xff9 (size before relaxing)
 .debug_str     0x0000d9e9      0x8b3 fs/ext4/libext4fs.o
                               0x1825 (size before relaxing)
 .debug_str     0x0000e29c      0x57e fs/fat/libfat.o
                                0xc78 (size before relaxing)
 .debug_str     0x0000e81a      0x10b fs/libfs.o
                                0x5f2 (size before relaxing)
 .debug_str     0x0000e925      0x861 lib/libfdt/libfdt.o
                               0x153d (size before relaxing)
 .debug_str     0x0000f186      0x837 lib/libgeneric.o
                               0x3275 (size before relaxing)
 .debug_str     0x0000f9bd      0x306 lib/zlib/libz.o
                                0x718 (size before relaxing)
 .debug_str     0x0000fcc3     0x1099 net/libnet.o
                               0x4ebf (size before relaxing)
 .debug_str     0x00010d5c      0x561 post/libpost.o
                               0x6b33 (size before relaxing)
 .debug_str     0x000112bd      0x1ea board/freescale/cxo160/libcxo160.o
                               0x1901 (size before relaxing)
 .debug_str     0x000114a7      0x330 /opt/fsl/1.2/sysroots/ppce500mc-fsl-linux/usr/lib/powerpc-fsl-linux/4.6.2/libgcc.a(_lshrdi3.o)
                                0x425 (size before relaxing)
 .debug_str     0x000117d7        0xa /opt/fsl/1.2/sysroots/ppce500mc-fsl-linux/usr/lib/powerpc-fsl-linux/4.6.2/libgcc.a(_ashldi3.o)
                                0x425 (size before relaxing)
 .debug_str     0x000117e1       0x47 /opt/fsl/1.2/sysroots/ppce500mc-fsl-linux/usr/lib/powerpc-fsl-linux/4.6.2/libgcc.a(_udivdi3.o)
                                0x449 (size before relaxing)

.debug_loc      0x00000000    0x480ef
 .debug_loc     0x00000000     0x5931 arch/powerpc/cpu/mpc85xx/libmpc85xx.o
 .debug_loc     0x00005931     0x2865 arch/powerpc/cpu/mpc8xxx/ddr/libddr.o
 .debug_loc     0x00008196     0x1e7c arch/powerpc/cpu/mpc8xxx/lib8xxx.o
 .debug_loc     0x0000a012      0xc13 arch/powerpc/lib/libpowerpc.o
 .debug_loc     0x0000ac25      0x1b4 board/freescale/common/libfreescale.o
 .debug_loc     0x0000add9    0x18a70 common/libcommon.o
 .debug_loc     0x00023849      0xcf3 disk/libdisk.o
 .debug_loc     0x0002453c     0x13b2 drivers/i2c/libi2c.o
 .debug_loc     0x000258ee      0x76d drivers/input/libinput.o
 .debug_loc     0x0002605b     0x1ebc drivers/mmc/libmmc.o
 .debug_loc     0x00027f17     0x242a drivers/mtd/libmtd.o
 .debug_loc     0x0002a341     0x29c3 drivers/net/fm/libfm.o
 .debug_loc     0x0002cd04      0x308 drivers/net/libnet.o
 .debug_loc     0x0002d00c     0x10e6 drivers/net/phy/libphy.o
 .debug_loc     0x0002e0f2     0x329b drivers/pci/libpci.o
 .debug_loc     0x0003138d      0x531 drivers/rtc/librtc.o
 .debug_loc     0x000318be      0xf0c drivers/serial/libserial.o
 .debug_loc     0x000327ca     0x1f4d fs/ext4/libext4fs.o
 .debug_loc     0x00034717     0x2049 fs/fat/libfat.o
 .debug_loc     0x00036760      0x5f0 fs/libfs.o
 .debug_loc     0x00036d50     0x38d4 lib/libfdt/libfdt.o
 .debug_loc     0x0003a624     0x5efc lib/libgeneric.o
 .debug_loc     0x00040520     0x204b lib/zlib/libz.o
 .debug_loc     0x0004256b     0x31c3 net/libnet.o
 .debug_loc     0x0004572e     0x1c25 post/libpost.o
 .debug_loc     0x00047353      0x495 board/freescale/cxo160/libcxo160.o
 .debug_loc     0x000477e8       0x87 /opt/fsl/1.2/sysroots/ppce500mc-fsl-linux/usr/lib/powerpc-fsl-linux/4.6.2/libgcc.a(_lshrdi3.o)
 .debug_loc     0x0004786f       0x87 /opt/fsl/1.2/sysroots/ppce500mc-fsl-linux/usr/lib/powerpc-fsl-linux/4.6.2/libgcc.a(_ashldi3.o)
 .debug_loc     0x000478f6      0x7f9 /opt/fsl/1.2/sysroots/ppce500mc-fsl-linux/usr/lib/powerpc-fsl-linux/4.6.2/libgcc.a(_udivdi3.o)
